
kernel：     文件格式 elf32-i386


Disassembly of section .init.text:

00100000 <multiboot_header>:
  100000:	02 b0 ad 1b 02 00    	add    0x21bad(%eax),%dh
  100006:	00 00                	add    %al,(%eax)
  100008:	fc                   	cld    
  100009:	4f                   	dec    %edi
  10000a:	52                   	push   %edx
  10000b:	e4                   	.byte 0xe4

0010000c <_start>:
  10000c:	fa                   	cli    
  10000d:	c7 05 00 10 00 00 83 	movl   $0x83,0x1000
  100014:	00 00 00 
  100017:	c7 05 00 1c 00 00 83 	movl   $0x83,0x1c00
  10001e:	00 00 00 
  100021:	0f 20 e0             	mov    %cr4,%eax
  100024:	83 c8 10             	or     $0x10,%eax
  100027:	0f 22 e0             	mov    %eax,%cr4
  10002a:	b8 00 10 00 00       	mov    $0x1000,%eax
  10002f:	0f 22 d8             	mov    %eax,%cr3
  100032:	0f 20 c0             	mov    %cr0,%eax
  100035:	0d 00 00 01 80       	or     $0x80010000,%eax
  10003a:	0f 22 c0             	mov    %eax,%cr0
  10003d:	b8 00 10 10 c0       	mov    $0xc0101000,%eax
  100042:	ff e0                	jmp    *%eax
  100044:	66 90                	xchg   %ax,%ax
  100046:	66 90                	xchg   %ax,%ax
  100048:	66 90                	xchg   %ax,%ax
  10004a:	66 90                	xchg   %ax,%ax
  10004c:	66 90                	xchg   %ax,%ax
  10004e:	66 90                	xchg   %ax,%ax
  100050:	66 90                	xchg   %ax,%ax
  100052:	66 90                	xchg   %ax,%ax
  100054:	66 90                	xchg   %ax,%ax
  100056:	66 90                	xchg   %ax,%ax
  100058:	66 90                	xchg   %ax,%ax
  10005a:	66 90                	xchg   %ax,%ax
  10005c:	66 90                	xchg   %ax,%ax
  10005e:	66 90                	xchg   %ax,%ax
  100060:	66 90                	xchg   %ax,%ax
  100062:	66 90                	xchg   %ax,%ax
  100064:	66 90                	xchg   %ax,%ax
  100066:	66 90                	xchg   %ax,%ax
  100068:	66 90                	xchg   %ax,%ax
  10006a:	66 90                	xchg   %ax,%ax
  10006c:	66 90                	xchg   %ax,%ax
  10006e:	66 90                	xchg   %ax,%ax
  100070:	66 90                	xchg   %ax,%ax
  100072:	66 90                	xchg   %ax,%ax
  100074:	66 90                	xchg   %ax,%ax
  100076:	66 90                	xchg   %ax,%ax
  100078:	66 90                	xchg   %ax,%ax
  10007a:	66 90                	xchg   %ax,%ax
  10007c:	66 90                	xchg   %ax,%ax
  10007e:	66 90                	xchg   %ax,%ax
  100080:	66 90                	xchg   %ax,%ax
  100082:	66 90                	xchg   %ax,%ax
  100084:	66 90                	xchg   %ax,%ax
  100086:	66 90                	xchg   %ax,%ax
  100088:	66 90                	xchg   %ax,%ax
  10008a:	66 90                	xchg   %ax,%ax
  10008c:	66 90                	xchg   %ax,%ax
  10008e:	66 90                	xchg   %ax,%ax
  100090:	66 90                	xchg   %ax,%ax
  100092:	66 90                	xchg   %ax,%ax
  100094:	66 90                	xchg   %ax,%ax
  100096:	66 90                	xchg   %ax,%ax
  100098:	66 90                	xchg   %ax,%ax
  10009a:	66 90                	xchg   %ax,%ax
  10009c:	66 90                	xchg   %ax,%ax
  10009e:	66 90                	xchg   %ax,%ax
  1000a0:	66 90                	xchg   %ax,%ax
  1000a2:	66 90                	xchg   %ax,%ax
  1000a4:	66 90                	xchg   %ax,%ax
  1000a6:	66 90                	xchg   %ax,%ax
  1000a8:	66 90                	xchg   %ax,%ax
  1000aa:	66 90                	xchg   %ax,%ax
  1000ac:	66 90                	xchg   %ax,%ax
  1000ae:	66 90                	xchg   %ax,%ax
  1000b0:	66 90                	xchg   %ax,%ax
  1000b2:	66 90                	xchg   %ax,%ax
  1000b4:	66 90                	xchg   %ax,%ax
  1000b6:	66 90                	xchg   %ax,%ax
  1000b8:	66 90                	xchg   %ax,%ax
  1000ba:	66 90                	xchg   %ax,%ax
  1000bc:	66 90                	xchg   %ax,%ax
  1000be:	66 90                	xchg   %ax,%ax
  1000c0:	66 90                	xchg   %ax,%ax
  1000c2:	66 90                	xchg   %ax,%ax
  1000c4:	66 90                	xchg   %ax,%ax
  1000c6:	66 90                	xchg   %ax,%ax
  1000c8:	66 90                	xchg   %ax,%ax
  1000ca:	66 90                	xchg   %ax,%ax
  1000cc:	66 90                	xchg   %ax,%ax
  1000ce:	66 90                	xchg   %ax,%ax
  1000d0:	66 90                	xchg   %ax,%ax
  1000d2:	66 90                	xchg   %ax,%ax
  1000d4:	66 90                	xchg   %ax,%ax
  1000d6:	66 90                	xchg   %ax,%ax
  1000d8:	66 90                	xchg   %ax,%ax
  1000da:	66 90                	xchg   %ax,%ax
  1000dc:	66 90                	xchg   %ax,%ax
  1000de:	66 90                	xchg   %ax,%ax
  1000e0:	66 90                	xchg   %ax,%ax
  1000e2:	66 90                	xchg   %ax,%ax
  1000e4:	66 90                	xchg   %ax,%ax
  1000e6:	66 90                	xchg   %ax,%ax
  1000e8:	66 90                	xchg   %ax,%ax
  1000ea:	66 90                	xchg   %ax,%ax
  1000ec:	66 90                	xchg   %ax,%ax
  1000ee:	66 90                	xchg   %ax,%ax
  1000f0:	66 90                	xchg   %ax,%ax
  1000f2:	66 90                	xchg   %ax,%ax
  1000f4:	66 90                	xchg   %ax,%ax
  1000f6:	66 90                	xchg   %ax,%ax
  1000f8:	66 90                	xchg   %ax,%ax
  1000fa:	66 90                	xchg   %ax,%ax
  1000fc:	66 90                	xchg   %ax,%ax
  1000fe:	66 90                	xchg   %ax,%ax
  100100:	66 90                	xchg   %ax,%ax
  100102:	66 90                	xchg   %ax,%ax
  100104:	66 90                	xchg   %ax,%ax
  100106:	66 90                	xchg   %ax,%ax
  100108:	66 90                	xchg   %ax,%ax
  10010a:	66 90                	xchg   %ax,%ax
  10010c:	66 90                	xchg   %ax,%ax
  10010e:	66 90                	xchg   %ax,%ax
  100110:	66 90                	xchg   %ax,%ax
  100112:	66 90                	xchg   %ax,%ax
  100114:	66 90                	xchg   %ax,%ax
  100116:	66 90                	xchg   %ax,%ax
  100118:	66 90                	xchg   %ax,%ax
  10011a:	66 90                	xchg   %ax,%ax
  10011c:	66 90                	xchg   %ax,%ax
  10011e:	66 90                	xchg   %ax,%ax
  100120:	66 90                	xchg   %ax,%ax
  100122:	66 90                	xchg   %ax,%ax
  100124:	66 90                	xchg   %ax,%ax
  100126:	66 90                	xchg   %ax,%ax
  100128:	66 90                	xchg   %ax,%ax
  10012a:	66 90                	xchg   %ax,%ax
  10012c:	66 90                	xchg   %ax,%ax
  10012e:	66 90                	xchg   %ax,%ax
  100130:	66 90                	xchg   %ax,%ax
  100132:	66 90                	xchg   %ax,%ax
  100134:	66 90                	xchg   %ax,%ax
  100136:	66 90                	xchg   %ax,%ax
  100138:	66 90                	xchg   %ax,%ax
  10013a:	66 90                	xchg   %ax,%ax
  10013c:	66 90                	xchg   %ax,%ax
  10013e:	66 90                	xchg   %ax,%ax
  100140:	66 90                	xchg   %ax,%ax
  100142:	66 90                	xchg   %ax,%ax
  100144:	66 90                	xchg   %ax,%ax
  100146:	66 90                	xchg   %ax,%ax
  100148:	66 90                	xchg   %ax,%ax
  10014a:	66 90                	xchg   %ax,%ax
  10014c:	66 90                	xchg   %ax,%ax
  10014e:	66 90                	xchg   %ax,%ax
  100150:	66 90                	xchg   %ax,%ax
  100152:	66 90                	xchg   %ax,%ax
  100154:	66 90                	xchg   %ax,%ax
  100156:	66 90                	xchg   %ax,%ax
  100158:	66 90                	xchg   %ax,%ax
  10015a:	66 90                	xchg   %ax,%ax
  10015c:	66 90                	xchg   %ax,%ax
  10015e:	66 90                	xchg   %ax,%ax
  100160:	66 90                	xchg   %ax,%ax
  100162:	66 90                	xchg   %ax,%ax
  100164:	66 90                	xchg   %ax,%ax
  100166:	66 90                	xchg   %ax,%ax
  100168:	66 90                	xchg   %ax,%ax
  10016a:	66 90                	xchg   %ax,%ax
  10016c:	66 90                	xchg   %ax,%ax
  10016e:	66 90                	xchg   %ax,%ax
  100170:	66 90                	xchg   %ax,%ax
  100172:	66 90                	xchg   %ax,%ax
  100174:	66 90                	xchg   %ax,%ax
  100176:	66 90                	xchg   %ax,%ax
  100178:	66 90                	xchg   %ax,%ax
  10017a:	66 90                	xchg   %ax,%ax
  10017c:	66 90                	xchg   %ax,%ax
  10017e:	66 90                	xchg   %ax,%ax
  100180:	66 90                	xchg   %ax,%ax
  100182:	66 90                	xchg   %ax,%ax
  100184:	66 90                	xchg   %ax,%ax
  100186:	66 90                	xchg   %ax,%ax
  100188:	66 90                	xchg   %ax,%ax
  10018a:	66 90                	xchg   %ax,%ax
  10018c:	66 90                	xchg   %ax,%ax
  10018e:	66 90                	xchg   %ax,%ax
  100190:	66 90                	xchg   %ax,%ax
  100192:	66 90                	xchg   %ax,%ax
  100194:	66 90                	xchg   %ax,%ax
  100196:	66 90                	xchg   %ax,%ax
  100198:	66 90                	xchg   %ax,%ax
  10019a:	66 90                	xchg   %ax,%ax
  10019c:	66 90                	xchg   %ax,%ax
  10019e:	66 90                	xchg   %ax,%ax
  1001a0:	66 90                	xchg   %ax,%ax
  1001a2:	66 90                	xchg   %ax,%ax
  1001a4:	66 90                	xchg   %ax,%ax
  1001a6:	66 90                	xchg   %ax,%ax
  1001a8:	66 90                	xchg   %ax,%ax
  1001aa:	66 90                	xchg   %ax,%ax
  1001ac:	66 90                	xchg   %ax,%ax
  1001ae:	66 90                	xchg   %ax,%ax
  1001b0:	66 90                	xchg   %ax,%ax
  1001b2:	66 90                	xchg   %ax,%ax
  1001b4:	66 90                	xchg   %ax,%ax
  1001b6:	66 90                	xchg   %ax,%ax
  1001b8:	66 90                	xchg   %ax,%ax
  1001ba:	66 90                	xchg   %ax,%ax
  1001bc:	66 90                	xchg   %ax,%ax
  1001be:	66 90                	xchg   %ax,%ax
  1001c0:	66 90                	xchg   %ax,%ax
  1001c2:	66 90                	xchg   %ax,%ax
  1001c4:	66 90                	xchg   %ax,%ax
  1001c6:	66 90                	xchg   %ax,%ax
  1001c8:	66 90                	xchg   %ax,%ax
  1001ca:	66 90                	xchg   %ax,%ax
  1001cc:	66 90                	xchg   %ax,%ax
  1001ce:	66 90                	xchg   %ax,%ax
  1001d0:	66 90                	xchg   %ax,%ax
  1001d2:	66 90                	xchg   %ax,%ax
  1001d4:	66 90                	xchg   %ax,%ax
  1001d6:	66 90                	xchg   %ax,%ax
  1001d8:	66 90                	xchg   %ax,%ax
  1001da:	66 90                	xchg   %ax,%ax
  1001dc:	66 90                	xchg   %ax,%ax
  1001de:	66 90                	xchg   %ax,%ax
  1001e0:	66 90                	xchg   %ax,%ax
  1001e2:	66 90                	xchg   %ax,%ax
  1001e4:	66 90                	xchg   %ax,%ax
  1001e6:	66 90                	xchg   %ax,%ax
  1001e8:	66 90                	xchg   %ax,%ax
  1001ea:	66 90                	xchg   %ax,%ax
  1001ec:	66 90                	xchg   %ax,%ax
  1001ee:	66 90                	xchg   %ax,%ax
  1001f0:	66 90                	xchg   %ax,%ax
  1001f2:	66 90                	xchg   %ax,%ax
  1001f4:	66 90                	xchg   %ax,%ax
  1001f6:	66 90                	xchg   %ax,%ax
  1001f8:	66 90                	xchg   %ax,%ax
  1001fa:	66 90                	xchg   %ax,%ax
  1001fc:	66 90                	xchg   %ax,%ax
  1001fe:	66 90                	xchg   %ax,%ax
  100200:	66 90                	xchg   %ax,%ax
  100202:	66 90                	xchg   %ax,%ax
  100204:	66 90                	xchg   %ax,%ax
  100206:	66 90                	xchg   %ax,%ax
  100208:	66 90                	xchg   %ax,%ax
  10020a:	66 90                	xchg   %ax,%ax
  10020c:	66 90                	xchg   %ax,%ax
  10020e:	66 90                	xchg   %ax,%ax
  100210:	66 90                	xchg   %ax,%ax
  100212:	66 90                	xchg   %ax,%ax
  100214:	66 90                	xchg   %ax,%ax
  100216:	66 90                	xchg   %ax,%ax
  100218:	66 90                	xchg   %ax,%ax
  10021a:	66 90                	xchg   %ax,%ax
  10021c:	66 90                	xchg   %ax,%ax
  10021e:	66 90                	xchg   %ax,%ax
  100220:	66 90                	xchg   %ax,%ax
  100222:	66 90                	xchg   %ax,%ax
  100224:	66 90                	xchg   %ax,%ax
  100226:	66 90                	xchg   %ax,%ax
  100228:	66 90                	xchg   %ax,%ax
  10022a:	66 90                	xchg   %ax,%ax
  10022c:	66 90                	xchg   %ax,%ax
  10022e:	66 90                	xchg   %ax,%ax
  100230:	66 90                	xchg   %ax,%ax
  100232:	66 90                	xchg   %ax,%ax
  100234:	66 90                	xchg   %ax,%ax
  100236:	66 90                	xchg   %ax,%ax
  100238:	66 90                	xchg   %ax,%ax
  10023a:	66 90                	xchg   %ax,%ax
  10023c:	66 90                	xchg   %ax,%ax
  10023e:	66 90                	xchg   %ax,%ax
  100240:	66 90                	xchg   %ax,%ax
  100242:	66 90                	xchg   %ax,%ax
  100244:	66 90                	xchg   %ax,%ax
  100246:	66 90                	xchg   %ax,%ax
  100248:	66 90                	xchg   %ax,%ax
  10024a:	66 90                	xchg   %ax,%ax
  10024c:	66 90                	xchg   %ax,%ax
  10024e:	66 90                	xchg   %ax,%ax
  100250:	66 90                	xchg   %ax,%ax
  100252:	66 90                	xchg   %ax,%ax
  100254:	66 90                	xchg   %ax,%ax
  100256:	66 90                	xchg   %ax,%ax
  100258:	66 90                	xchg   %ax,%ax
  10025a:	66 90                	xchg   %ax,%ax
  10025c:	66 90                	xchg   %ax,%ax
  10025e:	66 90                	xchg   %ax,%ax
  100260:	66 90                	xchg   %ax,%ax
  100262:	66 90                	xchg   %ax,%ax
  100264:	66 90                	xchg   %ax,%ax
  100266:	66 90                	xchg   %ax,%ax
  100268:	66 90                	xchg   %ax,%ax
  10026a:	66 90                	xchg   %ax,%ax
  10026c:	66 90                	xchg   %ax,%ax
  10026e:	66 90                	xchg   %ax,%ax
  100270:	66 90                	xchg   %ax,%ax
  100272:	66 90                	xchg   %ax,%ax
  100274:	66 90                	xchg   %ax,%ax
  100276:	66 90                	xchg   %ax,%ax
  100278:	66 90                	xchg   %ax,%ax
  10027a:	66 90                	xchg   %ax,%ax
  10027c:	66 90                	xchg   %ax,%ax
  10027e:	66 90                	xchg   %ax,%ax
  100280:	66 90                	xchg   %ax,%ax
  100282:	66 90                	xchg   %ax,%ax
  100284:	66 90                	xchg   %ax,%ax
  100286:	66 90                	xchg   %ax,%ax
  100288:	66 90                	xchg   %ax,%ax
  10028a:	66 90                	xchg   %ax,%ax
  10028c:	66 90                	xchg   %ax,%ax
  10028e:	66 90                	xchg   %ax,%ax
  100290:	66 90                	xchg   %ax,%ax
  100292:	66 90                	xchg   %ax,%ax
  100294:	66 90                	xchg   %ax,%ax
  100296:	66 90                	xchg   %ax,%ax
  100298:	66 90                	xchg   %ax,%ax
  10029a:	66 90                	xchg   %ax,%ax
  10029c:	66 90                	xchg   %ax,%ax
  10029e:	66 90                	xchg   %ax,%ax
  1002a0:	66 90                	xchg   %ax,%ax
  1002a2:	66 90                	xchg   %ax,%ax
  1002a4:	66 90                	xchg   %ax,%ax
  1002a6:	66 90                	xchg   %ax,%ax
  1002a8:	66 90                	xchg   %ax,%ax
  1002aa:	66 90                	xchg   %ax,%ax
  1002ac:	66 90                	xchg   %ax,%ax
  1002ae:	66 90                	xchg   %ax,%ax
  1002b0:	66 90                	xchg   %ax,%ax
  1002b2:	66 90                	xchg   %ax,%ax
  1002b4:	66 90                	xchg   %ax,%ax
  1002b6:	66 90                	xchg   %ax,%ax
  1002b8:	66 90                	xchg   %ax,%ax
  1002ba:	66 90                	xchg   %ax,%ax
  1002bc:	66 90                	xchg   %ax,%ax
  1002be:	66 90                	xchg   %ax,%ax
  1002c0:	66 90                	xchg   %ax,%ax
  1002c2:	66 90                	xchg   %ax,%ax
  1002c4:	66 90                	xchg   %ax,%ax
  1002c6:	66 90                	xchg   %ax,%ax
  1002c8:	66 90                	xchg   %ax,%ax
  1002ca:	66 90                	xchg   %ax,%ax
  1002cc:	66 90                	xchg   %ax,%ax
  1002ce:	66 90                	xchg   %ax,%ax
  1002d0:	66 90                	xchg   %ax,%ax
  1002d2:	66 90                	xchg   %ax,%ax
  1002d4:	66 90                	xchg   %ax,%ax
  1002d6:	66 90                	xchg   %ax,%ax
  1002d8:	66 90                	xchg   %ax,%ax
  1002da:	66 90                	xchg   %ax,%ax
  1002dc:	66 90                	xchg   %ax,%ax
  1002de:	66 90                	xchg   %ax,%ax
  1002e0:	66 90                	xchg   %ax,%ax
  1002e2:	66 90                	xchg   %ax,%ax
  1002e4:	66 90                	xchg   %ax,%ax
  1002e6:	66 90                	xchg   %ax,%ax
  1002e8:	66 90                	xchg   %ax,%ax
  1002ea:	66 90                	xchg   %ax,%ax
  1002ec:	66 90                	xchg   %ax,%ax
  1002ee:	66 90                	xchg   %ax,%ax
  1002f0:	66 90                	xchg   %ax,%ax
  1002f2:	66 90                	xchg   %ax,%ax
  1002f4:	66 90                	xchg   %ax,%ax
  1002f6:	66 90                	xchg   %ax,%ax
  1002f8:	66 90                	xchg   %ax,%ax
  1002fa:	66 90                	xchg   %ax,%ax
  1002fc:	66 90                	xchg   %ax,%ax
  1002fe:	66 90                	xchg   %ax,%ax
  100300:	66 90                	xchg   %ax,%ax
  100302:	66 90                	xchg   %ax,%ax
  100304:	66 90                	xchg   %ax,%ax
  100306:	66 90                	xchg   %ax,%ax
  100308:	66 90                	xchg   %ax,%ax
  10030a:	66 90                	xchg   %ax,%ax
  10030c:	66 90                	xchg   %ax,%ax
  10030e:	66 90                	xchg   %ax,%ax
  100310:	66 90                	xchg   %ax,%ax
  100312:	66 90                	xchg   %ax,%ax
  100314:	66 90                	xchg   %ax,%ax
  100316:	66 90                	xchg   %ax,%ax
  100318:	66 90                	xchg   %ax,%ax
  10031a:	66 90                	xchg   %ax,%ax
  10031c:	66 90                	xchg   %ax,%ax
  10031e:	66 90                	xchg   %ax,%ax
  100320:	66 90                	xchg   %ax,%ax
  100322:	66 90                	xchg   %ax,%ax
  100324:	66 90                	xchg   %ax,%ax
  100326:	66 90                	xchg   %ax,%ax
  100328:	66 90                	xchg   %ax,%ax
  10032a:	66 90                	xchg   %ax,%ax
  10032c:	66 90                	xchg   %ax,%ax
  10032e:	66 90                	xchg   %ax,%ax
  100330:	66 90                	xchg   %ax,%ax
  100332:	66 90                	xchg   %ax,%ax
  100334:	66 90                	xchg   %ax,%ax
  100336:	66 90                	xchg   %ax,%ax
  100338:	66 90                	xchg   %ax,%ax
  10033a:	66 90                	xchg   %ax,%ax
  10033c:	66 90                	xchg   %ax,%ax
  10033e:	66 90                	xchg   %ax,%ax
  100340:	66 90                	xchg   %ax,%ax
  100342:	66 90                	xchg   %ax,%ax
  100344:	66 90                	xchg   %ax,%ax
  100346:	66 90                	xchg   %ax,%ax
  100348:	66 90                	xchg   %ax,%ax
  10034a:	66 90                	xchg   %ax,%ax
  10034c:	66 90                	xchg   %ax,%ax
  10034e:	66 90                	xchg   %ax,%ax
  100350:	66 90                	xchg   %ax,%ax
  100352:	66 90                	xchg   %ax,%ax
  100354:	66 90                	xchg   %ax,%ax
  100356:	66 90                	xchg   %ax,%ax
  100358:	66 90                	xchg   %ax,%ax
  10035a:	66 90                	xchg   %ax,%ax
  10035c:	66 90                	xchg   %ax,%ax
  10035e:	66 90                	xchg   %ax,%ax
  100360:	66 90                	xchg   %ax,%ax
  100362:	66 90                	xchg   %ax,%ax
  100364:	66 90                	xchg   %ax,%ax
  100366:	66 90                	xchg   %ax,%ax
  100368:	66 90                	xchg   %ax,%ax
  10036a:	66 90                	xchg   %ax,%ax
  10036c:	66 90                	xchg   %ax,%ax
  10036e:	66 90                	xchg   %ax,%ax
  100370:	66 90                	xchg   %ax,%ax
  100372:	66 90                	xchg   %ax,%ax
  100374:	66 90                	xchg   %ax,%ax
  100376:	66 90                	xchg   %ax,%ax
  100378:	66 90                	xchg   %ax,%ax
  10037a:	66 90                	xchg   %ax,%ax
  10037c:	66 90                	xchg   %ax,%ax
  10037e:	66 90                	xchg   %ax,%ax
  100380:	66 90                	xchg   %ax,%ax
  100382:	66 90                	xchg   %ax,%ax
  100384:	66 90                	xchg   %ax,%ax
  100386:	66 90                	xchg   %ax,%ax
  100388:	66 90                	xchg   %ax,%ax
  10038a:	66 90                	xchg   %ax,%ax
  10038c:	66 90                	xchg   %ax,%ax
  10038e:	66 90                	xchg   %ax,%ax
  100390:	66 90                	xchg   %ax,%ax
  100392:	66 90                	xchg   %ax,%ax
  100394:	66 90                	xchg   %ax,%ax
  100396:	66 90                	xchg   %ax,%ax
  100398:	66 90                	xchg   %ax,%ax
  10039a:	66 90                	xchg   %ax,%ax
  10039c:	66 90                	xchg   %ax,%ax
  10039e:	66 90                	xchg   %ax,%ax
  1003a0:	66 90                	xchg   %ax,%ax
  1003a2:	66 90                	xchg   %ax,%ax
  1003a4:	66 90                	xchg   %ax,%ax
  1003a6:	66 90                	xchg   %ax,%ax
  1003a8:	66 90                	xchg   %ax,%ax
  1003aa:	66 90                	xchg   %ax,%ax
  1003ac:	66 90                	xchg   %ax,%ax
  1003ae:	66 90                	xchg   %ax,%ax
  1003b0:	66 90                	xchg   %ax,%ax
  1003b2:	66 90                	xchg   %ax,%ax
  1003b4:	66 90                	xchg   %ax,%ax
  1003b6:	66 90                	xchg   %ax,%ax
  1003b8:	66 90                	xchg   %ax,%ax
  1003ba:	66 90                	xchg   %ax,%ax
  1003bc:	66 90                	xchg   %ax,%ax
  1003be:	66 90                	xchg   %ax,%ax
  1003c0:	66 90                	xchg   %ax,%ax
  1003c2:	66 90                	xchg   %ax,%ax
  1003c4:	66 90                	xchg   %ax,%ax
  1003c6:	66 90                	xchg   %ax,%ax
  1003c8:	66 90                	xchg   %ax,%ax
  1003ca:	66 90                	xchg   %ax,%ax
  1003cc:	66 90                	xchg   %ax,%ax
  1003ce:	66 90                	xchg   %ax,%ax
  1003d0:	66 90                	xchg   %ax,%ax
  1003d2:	66 90                	xchg   %ax,%ax
  1003d4:	66 90                	xchg   %ax,%ax
  1003d6:	66 90                	xchg   %ax,%ax
  1003d8:	66 90                	xchg   %ax,%ax
  1003da:	66 90                	xchg   %ax,%ax
  1003dc:	66 90                	xchg   %ax,%ax
  1003de:	66 90                	xchg   %ax,%ax
  1003e0:	66 90                	xchg   %ax,%ax
  1003e2:	66 90                	xchg   %ax,%ax
  1003e4:	66 90                	xchg   %ax,%ax
  1003e6:	66 90                	xchg   %ax,%ax
  1003e8:	66 90                	xchg   %ax,%ax
  1003ea:	66 90                	xchg   %ax,%ax
  1003ec:	66 90                	xchg   %ax,%ax
  1003ee:	66 90                	xchg   %ax,%ax
  1003f0:	66 90                	xchg   %ax,%ax
  1003f2:	66 90                	xchg   %ax,%ax
  1003f4:	66 90                	xchg   %ax,%ax
  1003f6:	66 90                	xchg   %ax,%ax
  1003f8:	66 90                	xchg   %ax,%ax
  1003fa:	66 90                	xchg   %ax,%ax
  1003fc:	66 90                	xchg   %ax,%ax
  1003fe:	66 90                	xchg   %ax,%ax
  100400:	66 90                	xchg   %ax,%ax
  100402:	66 90                	xchg   %ax,%ax
  100404:	66 90                	xchg   %ax,%ax
  100406:	66 90                	xchg   %ax,%ax
  100408:	66 90                	xchg   %ax,%ax
  10040a:	66 90                	xchg   %ax,%ax
  10040c:	66 90                	xchg   %ax,%ax
  10040e:	66 90                	xchg   %ax,%ax
  100410:	66 90                	xchg   %ax,%ax
  100412:	66 90                	xchg   %ax,%ax
  100414:	66 90                	xchg   %ax,%ax
  100416:	66 90                	xchg   %ax,%ax
  100418:	66 90                	xchg   %ax,%ax
  10041a:	66 90                	xchg   %ax,%ax
  10041c:	66 90                	xchg   %ax,%ax
  10041e:	66 90                	xchg   %ax,%ax
  100420:	66 90                	xchg   %ax,%ax
  100422:	66 90                	xchg   %ax,%ax
  100424:	66 90                	xchg   %ax,%ax
  100426:	66 90                	xchg   %ax,%ax
  100428:	66 90                	xchg   %ax,%ax
  10042a:	66 90                	xchg   %ax,%ax
  10042c:	66 90                	xchg   %ax,%ax
  10042e:	66 90                	xchg   %ax,%ax
  100430:	66 90                	xchg   %ax,%ax
  100432:	66 90                	xchg   %ax,%ax
  100434:	66 90                	xchg   %ax,%ax
  100436:	66 90                	xchg   %ax,%ax
  100438:	66 90                	xchg   %ax,%ax
  10043a:	66 90                	xchg   %ax,%ax
  10043c:	66 90                	xchg   %ax,%ax
  10043e:	66 90                	xchg   %ax,%ax
  100440:	66 90                	xchg   %ax,%ax
  100442:	66 90                	xchg   %ax,%ax
  100444:	66 90                	xchg   %ax,%ax
  100446:	66 90                	xchg   %ax,%ax
  100448:	66 90                	xchg   %ax,%ax
  10044a:	66 90                	xchg   %ax,%ax
  10044c:	66 90                	xchg   %ax,%ax
  10044e:	66 90                	xchg   %ax,%ax
  100450:	66 90                	xchg   %ax,%ax
  100452:	66 90                	xchg   %ax,%ax
  100454:	66 90                	xchg   %ax,%ax
  100456:	66 90                	xchg   %ax,%ax
  100458:	66 90                	xchg   %ax,%ax
  10045a:	66 90                	xchg   %ax,%ax
  10045c:	66 90                	xchg   %ax,%ax
  10045e:	66 90                	xchg   %ax,%ax
  100460:	66 90                	xchg   %ax,%ax
  100462:	66 90                	xchg   %ax,%ax
  100464:	66 90                	xchg   %ax,%ax
  100466:	66 90                	xchg   %ax,%ax
  100468:	66 90                	xchg   %ax,%ax
  10046a:	66 90                	xchg   %ax,%ax
  10046c:	66 90                	xchg   %ax,%ax
  10046e:	66 90                	xchg   %ax,%ax
  100470:	66 90                	xchg   %ax,%ax
  100472:	66 90                	xchg   %ax,%ax
  100474:	66 90                	xchg   %ax,%ax
  100476:	66 90                	xchg   %ax,%ax
  100478:	66 90                	xchg   %ax,%ax
  10047a:	66 90                	xchg   %ax,%ax
  10047c:	66 90                	xchg   %ax,%ax
  10047e:	66 90                	xchg   %ax,%ax
  100480:	66 90                	xchg   %ax,%ax
  100482:	66 90                	xchg   %ax,%ax
  100484:	66 90                	xchg   %ax,%ax
  100486:	66 90                	xchg   %ax,%ax
  100488:	66 90                	xchg   %ax,%ax
  10048a:	66 90                	xchg   %ax,%ax
  10048c:	66 90                	xchg   %ax,%ax
  10048e:	66 90                	xchg   %ax,%ax
  100490:	66 90                	xchg   %ax,%ax
  100492:	66 90                	xchg   %ax,%ax
  100494:	66 90                	xchg   %ax,%ax
  100496:	66 90                	xchg   %ax,%ax
  100498:	66 90                	xchg   %ax,%ax
  10049a:	66 90                	xchg   %ax,%ax
  10049c:	66 90                	xchg   %ax,%ax
  10049e:	66 90                	xchg   %ax,%ax
  1004a0:	66 90                	xchg   %ax,%ax
  1004a2:	66 90                	xchg   %ax,%ax
  1004a4:	66 90                	xchg   %ax,%ax
  1004a6:	66 90                	xchg   %ax,%ax
  1004a8:	66 90                	xchg   %ax,%ax
  1004aa:	66 90                	xchg   %ax,%ax
  1004ac:	66 90                	xchg   %ax,%ax
  1004ae:	66 90                	xchg   %ax,%ax
  1004b0:	66 90                	xchg   %ax,%ax
  1004b2:	66 90                	xchg   %ax,%ax
  1004b4:	66 90                	xchg   %ax,%ax
  1004b6:	66 90                	xchg   %ax,%ax
  1004b8:	66 90                	xchg   %ax,%ax
  1004ba:	66 90                	xchg   %ax,%ax
  1004bc:	66 90                	xchg   %ax,%ax
  1004be:	66 90                	xchg   %ax,%ax
  1004c0:	66 90                	xchg   %ax,%ax
  1004c2:	66 90                	xchg   %ax,%ax
  1004c4:	66 90                	xchg   %ax,%ax
  1004c6:	66 90                	xchg   %ax,%ax
  1004c8:	66 90                	xchg   %ax,%ax
  1004ca:	66 90                	xchg   %ax,%ax
  1004cc:	66 90                	xchg   %ax,%ax
  1004ce:	66 90                	xchg   %ax,%ax
  1004d0:	66 90                	xchg   %ax,%ax
  1004d2:	66 90                	xchg   %ax,%ax
  1004d4:	66 90                	xchg   %ax,%ax
  1004d6:	66 90                	xchg   %ax,%ax
  1004d8:	66 90                	xchg   %ax,%ax
  1004da:	66 90                	xchg   %ax,%ax
  1004dc:	66 90                	xchg   %ax,%ax
  1004de:	66 90                	xchg   %ax,%ax
  1004e0:	66 90                	xchg   %ax,%ax
  1004e2:	66 90                	xchg   %ax,%ax
  1004e4:	66 90                	xchg   %ax,%ax
  1004e6:	66 90                	xchg   %ax,%ax
  1004e8:	66 90                	xchg   %ax,%ax
  1004ea:	66 90                	xchg   %ax,%ax
  1004ec:	66 90                	xchg   %ax,%ax
  1004ee:	66 90                	xchg   %ax,%ax
  1004f0:	66 90                	xchg   %ax,%ax
  1004f2:	66 90                	xchg   %ax,%ax
  1004f4:	66 90                	xchg   %ax,%ax
  1004f6:	66 90                	xchg   %ax,%ax
  1004f8:	66 90                	xchg   %ax,%ax
  1004fa:	66 90                	xchg   %ax,%ax
  1004fc:	66 90                	xchg   %ax,%ax
  1004fe:	66 90                	xchg   %ax,%ax
  100500:	66 90                	xchg   %ax,%ax
  100502:	66 90                	xchg   %ax,%ax
  100504:	66 90                	xchg   %ax,%ax
  100506:	66 90                	xchg   %ax,%ax
  100508:	66 90                	xchg   %ax,%ax
  10050a:	66 90                	xchg   %ax,%ax
  10050c:	66 90                	xchg   %ax,%ax
  10050e:	66 90                	xchg   %ax,%ax
  100510:	66 90                	xchg   %ax,%ax
  100512:	66 90                	xchg   %ax,%ax
  100514:	66 90                	xchg   %ax,%ax
  100516:	66 90                	xchg   %ax,%ax
  100518:	66 90                	xchg   %ax,%ax
  10051a:	66 90                	xchg   %ax,%ax
  10051c:	66 90                	xchg   %ax,%ax
  10051e:	66 90                	xchg   %ax,%ax
  100520:	66 90                	xchg   %ax,%ax
  100522:	66 90                	xchg   %ax,%ax
  100524:	66 90                	xchg   %ax,%ax
  100526:	66 90                	xchg   %ax,%ax
  100528:	66 90                	xchg   %ax,%ax
  10052a:	66 90                	xchg   %ax,%ax
  10052c:	66 90                	xchg   %ax,%ax
  10052e:	66 90                	xchg   %ax,%ax
  100530:	66 90                	xchg   %ax,%ax
  100532:	66 90                	xchg   %ax,%ax
  100534:	66 90                	xchg   %ax,%ax
  100536:	66 90                	xchg   %ax,%ax
  100538:	66 90                	xchg   %ax,%ax
  10053a:	66 90                	xchg   %ax,%ax
  10053c:	66 90                	xchg   %ax,%ax
  10053e:	66 90                	xchg   %ax,%ax
  100540:	66 90                	xchg   %ax,%ax
  100542:	66 90                	xchg   %ax,%ax
  100544:	66 90                	xchg   %ax,%ax
  100546:	66 90                	xchg   %ax,%ax
  100548:	66 90                	xchg   %ax,%ax
  10054a:	66 90                	xchg   %ax,%ax
  10054c:	66 90                	xchg   %ax,%ax
  10054e:	66 90                	xchg   %ax,%ax
  100550:	66 90                	xchg   %ax,%ax
  100552:	66 90                	xchg   %ax,%ax
  100554:	66 90                	xchg   %ax,%ax
  100556:	66 90                	xchg   %ax,%ax
  100558:	66 90                	xchg   %ax,%ax
  10055a:	66 90                	xchg   %ax,%ax
  10055c:	66 90                	xchg   %ax,%ax
  10055e:	66 90                	xchg   %ax,%ax
  100560:	66 90                	xchg   %ax,%ax
  100562:	66 90                	xchg   %ax,%ax
  100564:	66 90                	xchg   %ax,%ax
  100566:	66 90                	xchg   %ax,%ax
  100568:	66 90                	xchg   %ax,%ax
  10056a:	66 90                	xchg   %ax,%ax
  10056c:	66 90                	xchg   %ax,%ax
  10056e:	66 90                	xchg   %ax,%ax
  100570:	66 90                	xchg   %ax,%ax
  100572:	66 90                	xchg   %ax,%ax
  100574:	66 90                	xchg   %ax,%ax
  100576:	66 90                	xchg   %ax,%ax
  100578:	66 90                	xchg   %ax,%ax
  10057a:	66 90                	xchg   %ax,%ax
  10057c:	66 90                	xchg   %ax,%ax
  10057e:	66 90                	xchg   %ax,%ax
  100580:	66 90                	xchg   %ax,%ax
  100582:	66 90                	xchg   %ax,%ax
  100584:	66 90                	xchg   %ax,%ax
  100586:	66 90                	xchg   %ax,%ax
  100588:	66 90                	xchg   %ax,%ax
  10058a:	66 90                	xchg   %ax,%ax
  10058c:	66 90                	xchg   %ax,%ax
  10058e:	66 90                	xchg   %ax,%ax
  100590:	66 90                	xchg   %ax,%ax
  100592:	66 90                	xchg   %ax,%ax
  100594:	66 90                	xchg   %ax,%ax
  100596:	66 90                	xchg   %ax,%ax
  100598:	66 90                	xchg   %ax,%ax
  10059a:	66 90                	xchg   %ax,%ax
  10059c:	66 90                	xchg   %ax,%ax
  10059e:	66 90                	xchg   %ax,%ax
  1005a0:	66 90                	xchg   %ax,%ax
  1005a2:	66 90                	xchg   %ax,%ax
  1005a4:	66 90                	xchg   %ax,%ax
  1005a6:	66 90                	xchg   %ax,%ax
  1005a8:	66 90                	xchg   %ax,%ax
  1005aa:	66 90                	xchg   %ax,%ax
  1005ac:	66 90                	xchg   %ax,%ax
  1005ae:	66 90                	xchg   %ax,%ax
  1005b0:	66 90                	xchg   %ax,%ax
  1005b2:	66 90                	xchg   %ax,%ax
  1005b4:	66 90                	xchg   %ax,%ax
  1005b6:	66 90                	xchg   %ax,%ax
  1005b8:	66 90                	xchg   %ax,%ax
  1005ba:	66 90                	xchg   %ax,%ax
  1005bc:	66 90                	xchg   %ax,%ax
  1005be:	66 90                	xchg   %ax,%ax
  1005c0:	66 90                	xchg   %ax,%ax
  1005c2:	66 90                	xchg   %ax,%ax
  1005c4:	66 90                	xchg   %ax,%ax
  1005c6:	66 90                	xchg   %ax,%ax
  1005c8:	66 90                	xchg   %ax,%ax
  1005ca:	66 90                	xchg   %ax,%ax
  1005cc:	66 90                	xchg   %ax,%ax
  1005ce:	66 90                	xchg   %ax,%ax
  1005d0:	66 90                	xchg   %ax,%ax
  1005d2:	66 90                	xchg   %ax,%ax
  1005d4:	66 90                	xchg   %ax,%ax
  1005d6:	66 90                	xchg   %ax,%ax
  1005d8:	66 90                	xchg   %ax,%ax
  1005da:	66 90                	xchg   %ax,%ax
  1005dc:	66 90                	xchg   %ax,%ax
  1005de:	66 90                	xchg   %ax,%ax
  1005e0:	66 90                	xchg   %ax,%ax
  1005e2:	66 90                	xchg   %ax,%ax
  1005e4:	66 90                	xchg   %ax,%ax
  1005e6:	66 90                	xchg   %ax,%ax
  1005e8:	66 90                	xchg   %ax,%ax
  1005ea:	66 90                	xchg   %ax,%ax
  1005ec:	66 90                	xchg   %ax,%ax
  1005ee:	66 90                	xchg   %ax,%ax
  1005f0:	66 90                	xchg   %ax,%ax
  1005f2:	66 90                	xchg   %ax,%ax
  1005f4:	66 90                	xchg   %ax,%ax
  1005f6:	66 90                	xchg   %ax,%ax
  1005f8:	66 90                	xchg   %ax,%ax
  1005fa:	66 90                	xchg   %ax,%ax
  1005fc:	66 90                	xchg   %ax,%ax
  1005fe:	66 90                	xchg   %ax,%ax
  100600:	66 90                	xchg   %ax,%ax
  100602:	66 90                	xchg   %ax,%ax
  100604:	66 90                	xchg   %ax,%ax
  100606:	66 90                	xchg   %ax,%ax
  100608:	66 90                	xchg   %ax,%ax
  10060a:	66 90                	xchg   %ax,%ax
  10060c:	66 90                	xchg   %ax,%ax
  10060e:	66 90                	xchg   %ax,%ax
  100610:	66 90                	xchg   %ax,%ax
  100612:	66 90                	xchg   %ax,%ax
  100614:	66 90                	xchg   %ax,%ax
  100616:	66 90                	xchg   %ax,%ax
  100618:	66 90                	xchg   %ax,%ax
  10061a:	66 90                	xchg   %ax,%ax
  10061c:	66 90                	xchg   %ax,%ax
  10061e:	66 90                	xchg   %ax,%ax
  100620:	66 90                	xchg   %ax,%ax
  100622:	66 90                	xchg   %ax,%ax
  100624:	66 90                	xchg   %ax,%ax
  100626:	66 90                	xchg   %ax,%ax
  100628:	66 90                	xchg   %ax,%ax
  10062a:	66 90                	xchg   %ax,%ax
  10062c:	66 90                	xchg   %ax,%ax
  10062e:	66 90                	xchg   %ax,%ax
  100630:	66 90                	xchg   %ax,%ax
  100632:	66 90                	xchg   %ax,%ax
  100634:	66 90                	xchg   %ax,%ax
  100636:	66 90                	xchg   %ax,%ax
  100638:	66 90                	xchg   %ax,%ax
  10063a:	66 90                	xchg   %ax,%ax
  10063c:	66 90                	xchg   %ax,%ax
  10063e:	66 90                	xchg   %ax,%ax
  100640:	66 90                	xchg   %ax,%ax
  100642:	66 90                	xchg   %ax,%ax
  100644:	66 90                	xchg   %ax,%ax
  100646:	66 90                	xchg   %ax,%ax
  100648:	66 90                	xchg   %ax,%ax
  10064a:	66 90                	xchg   %ax,%ax
  10064c:	66 90                	xchg   %ax,%ax
  10064e:	66 90                	xchg   %ax,%ax
  100650:	66 90                	xchg   %ax,%ax
  100652:	66 90                	xchg   %ax,%ax
  100654:	66 90                	xchg   %ax,%ax
  100656:	66 90                	xchg   %ax,%ax
  100658:	66 90                	xchg   %ax,%ax
  10065a:	66 90                	xchg   %ax,%ax
  10065c:	66 90                	xchg   %ax,%ax
  10065e:	66 90                	xchg   %ax,%ax
  100660:	66 90                	xchg   %ax,%ax
  100662:	66 90                	xchg   %ax,%ax
  100664:	66 90                	xchg   %ax,%ax
  100666:	66 90                	xchg   %ax,%ax
  100668:	66 90                	xchg   %ax,%ax
  10066a:	66 90                	xchg   %ax,%ax
  10066c:	66 90                	xchg   %ax,%ax
  10066e:	66 90                	xchg   %ax,%ax
  100670:	66 90                	xchg   %ax,%ax
  100672:	66 90                	xchg   %ax,%ax
  100674:	66 90                	xchg   %ax,%ax
  100676:	66 90                	xchg   %ax,%ax
  100678:	66 90                	xchg   %ax,%ax
  10067a:	66 90                	xchg   %ax,%ax
  10067c:	66 90                	xchg   %ax,%ax
  10067e:	66 90                	xchg   %ax,%ax
  100680:	66 90                	xchg   %ax,%ax
  100682:	66 90                	xchg   %ax,%ax
  100684:	66 90                	xchg   %ax,%ax
  100686:	66 90                	xchg   %ax,%ax
  100688:	66 90                	xchg   %ax,%ax
  10068a:	66 90                	xchg   %ax,%ax
  10068c:	66 90                	xchg   %ax,%ax
  10068e:	66 90                	xchg   %ax,%ax
  100690:	66 90                	xchg   %ax,%ax
  100692:	66 90                	xchg   %ax,%ax
  100694:	66 90                	xchg   %ax,%ax
  100696:	66 90                	xchg   %ax,%ax
  100698:	66 90                	xchg   %ax,%ax
  10069a:	66 90                	xchg   %ax,%ax
  10069c:	66 90                	xchg   %ax,%ax
  10069e:	66 90                	xchg   %ax,%ax
  1006a0:	66 90                	xchg   %ax,%ax
  1006a2:	66 90                	xchg   %ax,%ax
  1006a4:	66 90                	xchg   %ax,%ax
  1006a6:	66 90                	xchg   %ax,%ax
  1006a8:	66 90                	xchg   %ax,%ax
  1006aa:	66 90                	xchg   %ax,%ax
  1006ac:	66 90                	xchg   %ax,%ax
  1006ae:	66 90                	xchg   %ax,%ax
  1006b0:	66 90                	xchg   %ax,%ax
  1006b2:	66 90                	xchg   %ax,%ax
  1006b4:	66 90                	xchg   %ax,%ax
  1006b6:	66 90                	xchg   %ax,%ax
  1006b8:	66 90                	xchg   %ax,%ax
  1006ba:	66 90                	xchg   %ax,%ax
  1006bc:	66 90                	xchg   %ax,%ax
  1006be:	66 90                	xchg   %ax,%ax
  1006c0:	66 90                	xchg   %ax,%ax
  1006c2:	66 90                	xchg   %ax,%ax
  1006c4:	66 90                	xchg   %ax,%ax
  1006c6:	66 90                	xchg   %ax,%ax
  1006c8:	66 90                	xchg   %ax,%ax
  1006ca:	66 90                	xchg   %ax,%ax
  1006cc:	66 90                	xchg   %ax,%ax
  1006ce:	66 90                	xchg   %ax,%ax
  1006d0:	66 90                	xchg   %ax,%ax
  1006d2:	66 90                	xchg   %ax,%ax
  1006d4:	66 90                	xchg   %ax,%ax
  1006d6:	66 90                	xchg   %ax,%ax
  1006d8:	66 90                	xchg   %ax,%ax
  1006da:	66 90                	xchg   %ax,%ax
  1006dc:	66 90                	xchg   %ax,%ax
  1006de:	66 90                	xchg   %ax,%ax
  1006e0:	66 90                	xchg   %ax,%ax
  1006e2:	66 90                	xchg   %ax,%ax
  1006e4:	66 90                	xchg   %ax,%ax
  1006e6:	66 90                	xchg   %ax,%ax
  1006e8:	66 90                	xchg   %ax,%ax
  1006ea:	66 90                	xchg   %ax,%ax
  1006ec:	66 90                	xchg   %ax,%ax
  1006ee:	66 90                	xchg   %ax,%ax
  1006f0:	66 90                	xchg   %ax,%ax
  1006f2:	66 90                	xchg   %ax,%ax
  1006f4:	66 90                	xchg   %ax,%ax
  1006f6:	66 90                	xchg   %ax,%ax
  1006f8:	66 90                	xchg   %ax,%ax
  1006fa:	66 90                	xchg   %ax,%ax
  1006fc:	66 90                	xchg   %ax,%ax
  1006fe:	66 90                	xchg   %ax,%ax
  100700:	66 90                	xchg   %ax,%ax
  100702:	66 90                	xchg   %ax,%ax
  100704:	66 90                	xchg   %ax,%ax
  100706:	66 90                	xchg   %ax,%ax
  100708:	66 90                	xchg   %ax,%ax
  10070a:	66 90                	xchg   %ax,%ax
  10070c:	66 90                	xchg   %ax,%ax
  10070e:	66 90                	xchg   %ax,%ax
  100710:	66 90                	xchg   %ax,%ax
  100712:	66 90                	xchg   %ax,%ax
  100714:	66 90                	xchg   %ax,%ax
  100716:	66 90                	xchg   %ax,%ax
  100718:	66 90                	xchg   %ax,%ax
  10071a:	66 90                	xchg   %ax,%ax
  10071c:	66 90                	xchg   %ax,%ax
  10071e:	66 90                	xchg   %ax,%ax
  100720:	66 90                	xchg   %ax,%ax
  100722:	66 90                	xchg   %ax,%ax
  100724:	66 90                	xchg   %ax,%ax
  100726:	66 90                	xchg   %ax,%ax
  100728:	66 90                	xchg   %ax,%ax
  10072a:	66 90                	xchg   %ax,%ax
  10072c:	66 90                	xchg   %ax,%ax
  10072e:	66 90                	xchg   %ax,%ax
  100730:	66 90                	xchg   %ax,%ax
  100732:	66 90                	xchg   %ax,%ax
  100734:	66 90                	xchg   %ax,%ax
  100736:	66 90                	xchg   %ax,%ax
  100738:	66 90                	xchg   %ax,%ax
  10073a:	66 90                	xchg   %ax,%ax
  10073c:	66 90                	xchg   %ax,%ax
  10073e:	66 90                	xchg   %ax,%ax
  100740:	66 90                	xchg   %ax,%ax
  100742:	66 90                	xchg   %ax,%ax
  100744:	66 90                	xchg   %ax,%ax
  100746:	66 90                	xchg   %ax,%ax
  100748:	66 90                	xchg   %ax,%ax
  10074a:	66 90                	xchg   %ax,%ax
  10074c:	66 90                	xchg   %ax,%ax
  10074e:	66 90                	xchg   %ax,%ax
  100750:	66 90                	xchg   %ax,%ax
  100752:	66 90                	xchg   %ax,%ax
  100754:	66 90                	xchg   %ax,%ax
  100756:	66 90                	xchg   %ax,%ax
  100758:	66 90                	xchg   %ax,%ax
  10075a:	66 90                	xchg   %ax,%ax
  10075c:	66 90                	xchg   %ax,%ax
  10075e:	66 90                	xchg   %ax,%ax
  100760:	66 90                	xchg   %ax,%ax
  100762:	66 90                	xchg   %ax,%ax
  100764:	66 90                	xchg   %ax,%ax
  100766:	66 90                	xchg   %ax,%ax
  100768:	66 90                	xchg   %ax,%ax
  10076a:	66 90                	xchg   %ax,%ax
  10076c:	66 90                	xchg   %ax,%ax
  10076e:	66 90                	xchg   %ax,%ax
  100770:	66 90                	xchg   %ax,%ax
  100772:	66 90                	xchg   %ax,%ax
  100774:	66 90                	xchg   %ax,%ax
  100776:	66 90                	xchg   %ax,%ax
  100778:	66 90                	xchg   %ax,%ax
  10077a:	66 90                	xchg   %ax,%ax
  10077c:	66 90                	xchg   %ax,%ax
  10077e:	66 90                	xchg   %ax,%ax
  100780:	66 90                	xchg   %ax,%ax
  100782:	66 90                	xchg   %ax,%ax
  100784:	66 90                	xchg   %ax,%ax
  100786:	66 90                	xchg   %ax,%ax
  100788:	66 90                	xchg   %ax,%ax
  10078a:	66 90                	xchg   %ax,%ax
  10078c:	66 90                	xchg   %ax,%ax
  10078e:	66 90                	xchg   %ax,%ax
  100790:	66 90                	xchg   %ax,%ax
  100792:	66 90                	xchg   %ax,%ax
  100794:	66 90                	xchg   %ax,%ax
  100796:	66 90                	xchg   %ax,%ax
  100798:	66 90                	xchg   %ax,%ax
  10079a:	66 90                	xchg   %ax,%ax
  10079c:	66 90                	xchg   %ax,%ax
  10079e:	66 90                	xchg   %ax,%ax
  1007a0:	66 90                	xchg   %ax,%ax
  1007a2:	66 90                	xchg   %ax,%ax
  1007a4:	66 90                	xchg   %ax,%ax
  1007a6:	66 90                	xchg   %ax,%ax
  1007a8:	66 90                	xchg   %ax,%ax
  1007aa:	66 90                	xchg   %ax,%ax
  1007ac:	66 90                	xchg   %ax,%ax
  1007ae:	66 90                	xchg   %ax,%ax
  1007b0:	66 90                	xchg   %ax,%ax
  1007b2:	66 90                	xchg   %ax,%ax
  1007b4:	66 90                	xchg   %ax,%ax
  1007b6:	66 90                	xchg   %ax,%ax
  1007b8:	66 90                	xchg   %ax,%ax
  1007ba:	66 90                	xchg   %ax,%ax
  1007bc:	66 90                	xchg   %ax,%ax
  1007be:	66 90                	xchg   %ax,%ax
  1007c0:	66 90                	xchg   %ax,%ax
  1007c2:	66 90                	xchg   %ax,%ax
  1007c4:	66 90                	xchg   %ax,%ax
  1007c6:	66 90                	xchg   %ax,%ax
  1007c8:	66 90                	xchg   %ax,%ax
  1007ca:	66 90                	xchg   %ax,%ax
  1007cc:	66 90                	xchg   %ax,%ax
  1007ce:	66 90                	xchg   %ax,%ax
  1007d0:	66 90                	xchg   %ax,%ax
  1007d2:	66 90                	xchg   %ax,%ax
  1007d4:	66 90                	xchg   %ax,%ax
  1007d6:	66 90                	xchg   %ax,%ax
  1007d8:	66 90                	xchg   %ax,%ax
  1007da:	66 90                	xchg   %ax,%ax
  1007dc:	66 90                	xchg   %ax,%ax
  1007de:	66 90                	xchg   %ax,%ax
  1007e0:	66 90                	xchg   %ax,%ax
  1007e2:	66 90                	xchg   %ax,%ax
  1007e4:	66 90                	xchg   %ax,%ax
  1007e6:	66 90                	xchg   %ax,%ax
  1007e8:	66 90                	xchg   %ax,%ax
  1007ea:	66 90                	xchg   %ax,%ax
  1007ec:	66 90                	xchg   %ax,%ax
  1007ee:	66 90                	xchg   %ax,%ax
  1007f0:	66 90                	xchg   %ax,%ax
  1007f2:	66 90                	xchg   %ax,%ax
  1007f4:	66 90                	xchg   %ax,%ax
  1007f6:	66 90                	xchg   %ax,%ax
  1007f8:	66 90                	xchg   %ax,%ax
  1007fa:	66 90                	xchg   %ax,%ax
  1007fc:	66 90                	xchg   %ax,%ax
  1007fe:	66 90                	xchg   %ax,%ax
  100800:	66 90                	xchg   %ax,%ax
  100802:	66 90                	xchg   %ax,%ax
  100804:	66 90                	xchg   %ax,%ax
  100806:	66 90                	xchg   %ax,%ax
  100808:	66 90                	xchg   %ax,%ax
  10080a:	66 90                	xchg   %ax,%ax
  10080c:	66 90                	xchg   %ax,%ax
  10080e:	66 90                	xchg   %ax,%ax
  100810:	66 90                	xchg   %ax,%ax
  100812:	66 90                	xchg   %ax,%ax
  100814:	66 90                	xchg   %ax,%ax
  100816:	66 90                	xchg   %ax,%ax
  100818:	66 90                	xchg   %ax,%ax
  10081a:	66 90                	xchg   %ax,%ax
  10081c:	66 90                	xchg   %ax,%ax
  10081e:	66 90                	xchg   %ax,%ax
  100820:	66 90                	xchg   %ax,%ax
  100822:	66 90                	xchg   %ax,%ax
  100824:	66 90                	xchg   %ax,%ax
  100826:	66 90                	xchg   %ax,%ax
  100828:	66 90                	xchg   %ax,%ax
  10082a:	66 90                	xchg   %ax,%ax
  10082c:	66 90                	xchg   %ax,%ax
  10082e:	66 90                	xchg   %ax,%ax
  100830:	66 90                	xchg   %ax,%ax
  100832:	66 90                	xchg   %ax,%ax
  100834:	66 90                	xchg   %ax,%ax
  100836:	66 90                	xchg   %ax,%ax
  100838:	66 90                	xchg   %ax,%ax
  10083a:	66 90                	xchg   %ax,%ax
  10083c:	66 90                	xchg   %ax,%ax
  10083e:	66 90                	xchg   %ax,%ax
  100840:	66 90                	xchg   %ax,%ax
  100842:	66 90                	xchg   %ax,%ax
  100844:	66 90                	xchg   %ax,%ax
  100846:	66 90                	xchg   %ax,%ax
  100848:	66 90                	xchg   %ax,%ax
  10084a:	66 90                	xchg   %ax,%ax
  10084c:	66 90                	xchg   %ax,%ax
  10084e:	66 90                	xchg   %ax,%ax
  100850:	66 90                	xchg   %ax,%ax
  100852:	66 90                	xchg   %ax,%ax
  100854:	66 90                	xchg   %ax,%ax
  100856:	66 90                	xchg   %ax,%ax
  100858:	66 90                	xchg   %ax,%ax
  10085a:	66 90                	xchg   %ax,%ax
  10085c:	66 90                	xchg   %ax,%ax
  10085e:	66 90                	xchg   %ax,%ax
  100860:	66 90                	xchg   %ax,%ax
  100862:	66 90                	xchg   %ax,%ax
  100864:	66 90                	xchg   %ax,%ax
  100866:	66 90                	xchg   %ax,%ax
  100868:	66 90                	xchg   %ax,%ax
  10086a:	66 90                	xchg   %ax,%ax
  10086c:	66 90                	xchg   %ax,%ax
  10086e:	66 90                	xchg   %ax,%ax
  100870:	66 90                	xchg   %ax,%ax
  100872:	66 90                	xchg   %ax,%ax
  100874:	66 90                	xchg   %ax,%ax
  100876:	66 90                	xchg   %ax,%ax
  100878:	66 90                	xchg   %ax,%ax
  10087a:	66 90                	xchg   %ax,%ax
  10087c:	66 90                	xchg   %ax,%ax
  10087e:	66 90                	xchg   %ax,%ax
  100880:	66 90                	xchg   %ax,%ax
  100882:	66 90                	xchg   %ax,%ax
  100884:	66 90                	xchg   %ax,%ax
  100886:	66 90                	xchg   %ax,%ax
  100888:	66 90                	xchg   %ax,%ax
  10088a:	66 90                	xchg   %ax,%ax
  10088c:	66 90                	xchg   %ax,%ax
  10088e:	66 90                	xchg   %ax,%ax
  100890:	66 90                	xchg   %ax,%ax
  100892:	66 90                	xchg   %ax,%ax
  100894:	66 90                	xchg   %ax,%ax
  100896:	66 90                	xchg   %ax,%ax
  100898:	66 90                	xchg   %ax,%ax
  10089a:	66 90                	xchg   %ax,%ax
  10089c:	66 90                	xchg   %ax,%ax
  10089e:	66 90                	xchg   %ax,%ax
  1008a0:	66 90                	xchg   %ax,%ax
  1008a2:	66 90                	xchg   %ax,%ax
  1008a4:	66 90                	xchg   %ax,%ax
  1008a6:	66 90                	xchg   %ax,%ax
  1008a8:	66 90                	xchg   %ax,%ax
  1008aa:	66 90                	xchg   %ax,%ax
  1008ac:	66 90                	xchg   %ax,%ax
  1008ae:	66 90                	xchg   %ax,%ax
  1008b0:	66 90                	xchg   %ax,%ax
  1008b2:	66 90                	xchg   %ax,%ax
  1008b4:	66 90                	xchg   %ax,%ax
  1008b6:	66 90                	xchg   %ax,%ax
  1008b8:	66 90                	xchg   %ax,%ax
  1008ba:	66 90                	xchg   %ax,%ax
  1008bc:	66 90                	xchg   %ax,%ax
  1008be:	66 90                	xchg   %ax,%ax
  1008c0:	66 90                	xchg   %ax,%ax
  1008c2:	66 90                	xchg   %ax,%ax
  1008c4:	66 90                	xchg   %ax,%ax
  1008c6:	66 90                	xchg   %ax,%ax
  1008c8:	66 90                	xchg   %ax,%ax
  1008ca:	66 90                	xchg   %ax,%ax
  1008cc:	66 90                	xchg   %ax,%ax
  1008ce:	66 90                	xchg   %ax,%ax
  1008d0:	66 90                	xchg   %ax,%ax
  1008d2:	66 90                	xchg   %ax,%ax
  1008d4:	66 90                	xchg   %ax,%ax
  1008d6:	66 90                	xchg   %ax,%ax
  1008d8:	66 90                	xchg   %ax,%ax
  1008da:	66 90                	xchg   %ax,%ax
  1008dc:	66 90                	xchg   %ax,%ax
  1008de:	66 90                	xchg   %ax,%ax
  1008e0:	66 90                	xchg   %ax,%ax
  1008e2:	66 90                	xchg   %ax,%ax
  1008e4:	66 90                	xchg   %ax,%ax
  1008e6:	66 90                	xchg   %ax,%ax
  1008e8:	66 90                	xchg   %ax,%ax
  1008ea:	66 90                	xchg   %ax,%ax
  1008ec:	66 90                	xchg   %ax,%ax
  1008ee:	66 90                	xchg   %ax,%ax
  1008f0:	66 90                	xchg   %ax,%ax
  1008f2:	66 90                	xchg   %ax,%ax
  1008f4:	66 90                	xchg   %ax,%ax
  1008f6:	66 90                	xchg   %ax,%ax
  1008f8:	66 90                	xchg   %ax,%ax
  1008fa:	66 90                	xchg   %ax,%ax
  1008fc:	66 90                	xchg   %ax,%ax
  1008fe:	66 90                	xchg   %ax,%ax
  100900:	66 90                	xchg   %ax,%ax
  100902:	66 90                	xchg   %ax,%ax
  100904:	66 90                	xchg   %ax,%ax
  100906:	66 90                	xchg   %ax,%ax
  100908:	66 90                	xchg   %ax,%ax
  10090a:	66 90                	xchg   %ax,%ax
  10090c:	66 90                	xchg   %ax,%ax
  10090e:	66 90                	xchg   %ax,%ax
  100910:	66 90                	xchg   %ax,%ax
  100912:	66 90                	xchg   %ax,%ax
  100914:	66 90                	xchg   %ax,%ax
  100916:	66 90                	xchg   %ax,%ax
  100918:	66 90                	xchg   %ax,%ax
  10091a:	66 90                	xchg   %ax,%ax
  10091c:	66 90                	xchg   %ax,%ax
  10091e:	66 90                	xchg   %ax,%ax
  100920:	66 90                	xchg   %ax,%ax
  100922:	66 90                	xchg   %ax,%ax
  100924:	66 90                	xchg   %ax,%ax
  100926:	66 90                	xchg   %ax,%ax
  100928:	66 90                	xchg   %ax,%ax
  10092a:	66 90                	xchg   %ax,%ax
  10092c:	66 90                	xchg   %ax,%ax
  10092e:	66 90                	xchg   %ax,%ax
  100930:	66 90                	xchg   %ax,%ax
  100932:	66 90                	xchg   %ax,%ax
  100934:	66 90                	xchg   %ax,%ax
  100936:	66 90                	xchg   %ax,%ax
  100938:	66 90                	xchg   %ax,%ax
  10093a:	66 90                	xchg   %ax,%ax
  10093c:	66 90                	xchg   %ax,%ax
  10093e:	66 90                	xchg   %ax,%ax
  100940:	66 90                	xchg   %ax,%ax
  100942:	66 90                	xchg   %ax,%ax
  100944:	66 90                	xchg   %ax,%ax
  100946:	66 90                	xchg   %ax,%ax
  100948:	66 90                	xchg   %ax,%ax
  10094a:	66 90                	xchg   %ax,%ax
  10094c:	66 90                	xchg   %ax,%ax
  10094e:	66 90                	xchg   %ax,%ax
  100950:	66 90                	xchg   %ax,%ax
  100952:	66 90                	xchg   %ax,%ax
  100954:	66 90                	xchg   %ax,%ax
  100956:	66 90                	xchg   %ax,%ax
  100958:	66 90                	xchg   %ax,%ax
  10095a:	66 90                	xchg   %ax,%ax
  10095c:	66 90                	xchg   %ax,%ax
  10095e:	66 90                	xchg   %ax,%ax
  100960:	66 90                	xchg   %ax,%ax
  100962:	66 90                	xchg   %ax,%ax
  100964:	66 90                	xchg   %ax,%ax
  100966:	66 90                	xchg   %ax,%ax
  100968:	66 90                	xchg   %ax,%ax
  10096a:	66 90                	xchg   %ax,%ax
  10096c:	66 90                	xchg   %ax,%ax
  10096e:	66 90                	xchg   %ax,%ax
  100970:	66 90                	xchg   %ax,%ax
  100972:	66 90                	xchg   %ax,%ax
  100974:	66 90                	xchg   %ax,%ax
  100976:	66 90                	xchg   %ax,%ax
  100978:	66 90                	xchg   %ax,%ax
  10097a:	66 90                	xchg   %ax,%ax
  10097c:	66 90                	xchg   %ax,%ax
  10097e:	66 90                	xchg   %ax,%ax
  100980:	66 90                	xchg   %ax,%ax
  100982:	66 90                	xchg   %ax,%ax
  100984:	66 90                	xchg   %ax,%ax
  100986:	66 90                	xchg   %ax,%ax
  100988:	66 90                	xchg   %ax,%ax
  10098a:	66 90                	xchg   %ax,%ax
  10098c:	66 90                	xchg   %ax,%ax
  10098e:	66 90                	xchg   %ax,%ax
  100990:	66 90                	xchg   %ax,%ax
  100992:	66 90                	xchg   %ax,%ax
  100994:	66 90                	xchg   %ax,%ax
  100996:	66 90                	xchg   %ax,%ax
  100998:	66 90                	xchg   %ax,%ax
  10099a:	66 90                	xchg   %ax,%ax
  10099c:	66 90                	xchg   %ax,%ax
  10099e:	66 90                	xchg   %ax,%ax
  1009a0:	66 90                	xchg   %ax,%ax
  1009a2:	66 90                	xchg   %ax,%ax
  1009a4:	66 90                	xchg   %ax,%ax
  1009a6:	66 90                	xchg   %ax,%ax
  1009a8:	66 90                	xchg   %ax,%ax
  1009aa:	66 90                	xchg   %ax,%ax
  1009ac:	66 90                	xchg   %ax,%ax
  1009ae:	66 90                	xchg   %ax,%ax
  1009b0:	66 90                	xchg   %ax,%ax
  1009b2:	66 90                	xchg   %ax,%ax
  1009b4:	66 90                	xchg   %ax,%ax
  1009b6:	66 90                	xchg   %ax,%ax
  1009b8:	66 90                	xchg   %ax,%ax
  1009ba:	66 90                	xchg   %ax,%ax
  1009bc:	66 90                	xchg   %ax,%ax
  1009be:	66 90                	xchg   %ax,%ax
  1009c0:	66 90                	xchg   %ax,%ax
  1009c2:	66 90                	xchg   %ax,%ax
  1009c4:	66 90                	xchg   %ax,%ax
  1009c6:	66 90                	xchg   %ax,%ax
  1009c8:	66 90                	xchg   %ax,%ax
  1009ca:	66 90                	xchg   %ax,%ax
  1009cc:	66 90                	xchg   %ax,%ax
  1009ce:	66 90                	xchg   %ax,%ax
  1009d0:	66 90                	xchg   %ax,%ax
  1009d2:	66 90                	xchg   %ax,%ax
  1009d4:	66 90                	xchg   %ax,%ax
  1009d6:	66 90                	xchg   %ax,%ax
  1009d8:	66 90                	xchg   %ax,%ax
  1009da:	66 90                	xchg   %ax,%ax
  1009dc:	66 90                	xchg   %ax,%ax
  1009de:	66 90                	xchg   %ax,%ax
  1009e0:	66 90                	xchg   %ax,%ax
  1009e2:	66 90                	xchg   %ax,%ax
  1009e4:	66 90                	xchg   %ax,%ax
  1009e6:	66 90                	xchg   %ax,%ax
  1009e8:	66 90                	xchg   %ax,%ax
  1009ea:	66 90                	xchg   %ax,%ax
  1009ec:	66 90                	xchg   %ax,%ax
  1009ee:	66 90                	xchg   %ax,%ax
  1009f0:	66 90                	xchg   %ax,%ax
  1009f2:	66 90                	xchg   %ax,%ax
  1009f4:	66 90                	xchg   %ax,%ax
  1009f6:	66 90                	xchg   %ax,%ax
  1009f8:	66 90                	xchg   %ax,%ax
  1009fa:	66 90                	xchg   %ax,%ax
  1009fc:	66 90                	xchg   %ax,%ax
  1009fe:	66 90                	xchg   %ax,%ax
  100a00:	66 90                	xchg   %ax,%ax
  100a02:	66 90                	xchg   %ax,%ax
  100a04:	66 90                	xchg   %ax,%ax
  100a06:	66 90                	xchg   %ax,%ax
  100a08:	66 90                	xchg   %ax,%ax
  100a0a:	66 90                	xchg   %ax,%ax
  100a0c:	66 90                	xchg   %ax,%ax
  100a0e:	66 90                	xchg   %ax,%ax
  100a10:	66 90                	xchg   %ax,%ax
  100a12:	66 90                	xchg   %ax,%ax
  100a14:	66 90                	xchg   %ax,%ax
  100a16:	66 90                	xchg   %ax,%ax
  100a18:	66 90                	xchg   %ax,%ax
  100a1a:	66 90                	xchg   %ax,%ax
  100a1c:	66 90                	xchg   %ax,%ax
  100a1e:	66 90                	xchg   %ax,%ax
  100a20:	66 90                	xchg   %ax,%ax
  100a22:	66 90                	xchg   %ax,%ax
  100a24:	66 90                	xchg   %ax,%ax
  100a26:	66 90                	xchg   %ax,%ax
  100a28:	66 90                	xchg   %ax,%ax
  100a2a:	66 90                	xchg   %ax,%ax
  100a2c:	66 90                	xchg   %ax,%ax
  100a2e:	66 90                	xchg   %ax,%ax
  100a30:	66 90                	xchg   %ax,%ax
  100a32:	66 90                	xchg   %ax,%ax
  100a34:	66 90                	xchg   %ax,%ax
  100a36:	66 90                	xchg   %ax,%ax
  100a38:	66 90                	xchg   %ax,%ax
  100a3a:	66 90                	xchg   %ax,%ax
  100a3c:	66 90                	xchg   %ax,%ax
  100a3e:	66 90                	xchg   %ax,%ax
  100a40:	66 90                	xchg   %ax,%ax
  100a42:	66 90                	xchg   %ax,%ax
  100a44:	66 90                	xchg   %ax,%ax
  100a46:	66 90                	xchg   %ax,%ax
  100a48:	66 90                	xchg   %ax,%ax
  100a4a:	66 90                	xchg   %ax,%ax
  100a4c:	66 90                	xchg   %ax,%ax
  100a4e:	66 90                	xchg   %ax,%ax
  100a50:	66 90                	xchg   %ax,%ax
  100a52:	66 90                	xchg   %ax,%ax
  100a54:	66 90                	xchg   %ax,%ax
  100a56:	66 90                	xchg   %ax,%ax
  100a58:	66 90                	xchg   %ax,%ax
  100a5a:	66 90                	xchg   %ax,%ax
  100a5c:	66 90                	xchg   %ax,%ax
  100a5e:	66 90                	xchg   %ax,%ax
  100a60:	66 90                	xchg   %ax,%ax
  100a62:	66 90                	xchg   %ax,%ax
  100a64:	66 90                	xchg   %ax,%ax
  100a66:	66 90                	xchg   %ax,%ax
  100a68:	66 90                	xchg   %ax,%ax
  100a6a:	66 90                	xchg   %ax,%ax
  100a6c:	66 90                	xchg   %ax,%ax
  100a6e:	66 90                	xchg   %ax,%ax
  100a70:	66 90                	xchg   %ax,%ax
  100a72:	66 90                	xchg   %ax,%ax
  100a74:	66 90                	xchg   %ax,%ax
  100a76:	66 90                	xchg   %ax,%ax
  100a78:	66 90                	xchg   %ax,%ax
  100a7a:	66 90                	xchg   %ax,%ax
  100a7c:	66 90                	xchg   %ax,%ax
  100a7e:	66 90                	xchg   %ax,%ax
  100a80:	66 90                	xchg   %ax,%ax
  100a82:	66 90                	xchg   %ax,%ax
  100a84:	66 90                	xchg   %ax,%ax
  100a86:	66 90                	xchg   %ax,%ax
  100a88:	66 90                	xchg   %ax,%ax
  100a8a:	66 90                	xchg   %ax,%ax
  100a8c:	66 90                	xchg   %ax,%ax
  100a8e:	66 90                	xchg   %ax,%ax
  100a90:	66 90                	xchg   %ax,%ax
  100a92:	66 90                	xchg   %ax,%ax
  100a94:	66 90                	xchg   %ax,%ax
  100a96:	66 90                	xchg   %ax,%ax
  100a98:	66 90                	xchg   %ax,%ax
  100a9a:	66 90                	xchg   %ax,%ax
  100a9c:	66 90                	xchg   %ax,%ax
  100a9e:	66 90                	xchg   %ax,%ax
  100aa0:	66 90                	xchg   %ax,%ax
  100aa2:	66 90                	xchg   %ax,%ax
  100aa4:	66 90                	xchg   %ax,%ax
  100aa6:	66 90                	xchg   %ax,%ax
  100aa8:	66 90                	xchg   %ax,%ax
  100aaa:	66 90                	xchg   %ax,%ax
  100aac:	66 90                	xchg   %ax,%ax
  100aae:	66 90                	xchg   %ax,%ax
  100ab0:	66 90                	xchg   %ax,%ax
  100ab2:	66 90                	xchg   %ax,%ax
  100ab4:	66 90                	xchg   %ax,%ax
  100ab6:	66 90                	xchg   %ax,%ax
  100ab8:	66 90                	xchg   %ax,%ax
  100aba:	66 90                	xchg   %ax,%ax
  100abc:	66 90                	xchg   %ax,%ax
  100abe:	66 90                	xchg   %ax,%ax
  100ac0:	66 90                	xchg   %ax,%ax
  100ac2:	66 90                	xchg   %ax,%ax
  100ac4:	66 90                	xchg   %ax,%ax
  100ac6:	66 90                	xchg   %ax,%ax
  100ac8:	66 90                	xchg   %ax,%ax
  100aca:	66 90                	xchg   %ax,%ax
  100acc:	66 90                	xchg   %ax,%ax
  100ace:	66 90                	xchg   %ax,%ax
  100ad0:	66 90                	xchg   %ax,%ax
  100ad2:	66 90                	xchg   %ax,%ax
  100ad4:	66 90                	xchg   %ax,%ax
  100ad6:	66 90                	xchg   %ax,%ax
  100ad8:	66 90                	xchg   %ax,%ax
  100ada:	66 90                	xchg   %ax,%ax
  100adc:	66 90                	xchg   %ax,%ax
  100ade:	66 90                	xchg   %ax,%ax
  100ae0:	66 90                	xchg   %ax,%ax
  100ae2:	66 90                	xchg   %ax,%ax
  100ae4:	66 90                	xchg   %ax,%ax
  100ae6:	66 90                	xchg   %ax,%ax
  100ae8:	66 90                	xchg   %ax,%ax
  100aea:	66 90                	xchg   %ax,%ax
  100aec:	66 90                	xchg   %ax,%ax
  100aee:	66 90                	xchg   %ax,%ax
  100af0:	66 90                	xchg   %ax,%ax
  100af2:	66 90                	xchg   %ax,%ax
  100af4:	66 90                	xchg   %ax,%ax
  100af6:	66 90                	xchg   %ax,%ax
  100af8:	66 90                	xchg   %ax,%ax
  100afa:	66 90                	xchg   %ax,%ax
  100afc:	66 90                	xchg   %ax,%ax
  100afe:	66 90                	xchg   %ax,%ax
  100b00:	66 90                	xchg   %ax,%ax
  100b02:	66 90                	xchg   %ax,%ax
  100b04:	66 90                	xchg   %ax,%ax
  100b06:	66 90                	xchg   %ax,%ax
  100b08:	66 90                	xchg   %ax,%ax
  100b0a:	66 90                	xchg   %ax,%ax
  100b0c:	66 90                	xchg   %ax,%ax
  100b0e:	66 90                	xchg   %ax,%ax
  100b10:	66 90                	xchg   %ax,%ax
  100b12:	66 90                	xchg   %ax,%ax
  100b14:	66 90                	xchg   %ax,%ax
  100b16:	66 90                	xchg   %ax,%ax
  100b18:	66 90                	xchg   %ax,%ax
  100b1a:	66 90                	xchg   %ax,%ax
  100b1c:	66 90                	xchg   %ax,%ax
  100b1e:	66 90                	xchg   %ax,%ax
  100b20:	66 90                	xchg   %ax,%ax
  100b22:	66 90                	xchg   %ax,%ax
  100b24:	66 90                	xchg   %ax,%ax
  100b26:	66 90                	xchg   %ax,%ax
  100b28:	66 90                	xchg   %ax,%ax
  100b2a:	66 90                	xchg   %ax,%ax
  100b2c:	66 90                	xchg   %ax,%ax
  100b2e:	66 90                	xchg   %ax,%ax
  100b30:	66 90                	xchg   %ax,%ax
  100b32:	66 90                	xchg   %ax,%ax
  100b34:	66 90                	xchg   %ax,%ax
  100b36:	66 90                	xchg   %ax,%ax
  100b38:	66 90                	xchg   %ax,%ax
  100b3a:	66 90                	xchg   %ax,%ax
  100b3c:	66 90                	xchg   %ax,%ax
  100b3e:	66 90                	xchg   %ax,%ax
  100b40:	66 90                	xchg   %ax,%ax
  100b42:	66 90                	xchg   %ax,%ax
  100b44:	66 90                	xchg   %ax,%ax
  100b46:	66 90                	xchg   %ax,%ax
  100b48:	66 90                	xchg   %ax,%ax
  100b4a:	66 90                	xchg   %ax,%ax
  100b4c:	66 90                	xchg   %ax,%ax
  100b4e:	66 90                	xchg   %ax,%ax
  100b50:	66 90                	xchg   %ax,%ax
  100b52:	66 90                	xchg   %ax,%ax
  100b54:	66 90                	xchg   %ax,%ax
  100b56:	66 90                	xchg   %ax,%ax
  100b58:	66 90                	xchg   %ax,%ax
  100b5a:	66 90                	xchg   %ax,%ax
  100b5c:	66 90                	xchg   %ax,%ax
  100b5e:	66 90                	xchg   %ax,%ax
  100b60:	66 90                	xchg   %ax,%ax
  100b62:	66 90                	xchg   %ax,%ax
  100b64:	66 90                	xchg   %ax,%ax
  100b66:	66 90                	xchg   %ax,%ax
  100b68:	66 90                	xchg   %ax,%ax
  100b6a:	66 90                	xchg   %ax,%ax
  100b6c:	66 90                	xchg   %ax,%ax
  100b6e:	66 90                	xchg   %ax,%ax
  100b70:	66 90                	xchg   %ax,%ax
  100b72:	66 90                	xchg   %ax,%ax
  100b74:	66 90                	xchg   %ax,%ax
  100b76:	66 90                	xchg   %ax,%ax
  100b78:	66 90                	xchg   %ax,%ax
  100b7a:	66 90                	xchg   %ax,%ax
  100b7c:	66 90                	xchg   %ax,%ax
  100b7e:	66 90                	xchg   %ax,%ax
  100b80:	66 90                	xchg   %ax,%ax
  100b82:	66 90                	xchg   %ax,%ax
  100b84:	66 90                	xchg   %ax,%ax
  100b86:	66 90                	xchg   %ax,%ax
  100b88:	66 90                	xchg   %ax,%ax
  100b8a:	66 90                	xchg   %ax,%ax
  100b8c:	66 90                	xchg   %ax,%ax
  100b8e:	66 90                	xchg   %ax,%ax
  100b90:	66 90                	xchg   %ax,%ax
  100b92:	66 90                	xchg   %ax,%ax
  100b94:	66 90                	xchg   %ax,%ax
  100b96:	66 90                	xchg   %ax,%ax
  100b98:	66 90                	xchg   %ax,%ax
  100b9a:	66 90                	xchg   %ax,%ax
  100b9c:	66 90                	xchg   %ax,%ax
  100b9e:	66 90                	xchg   %ax,%ax
  100ba0:	66 90                	xchg   %ax,%ax
  100ba2:	66 90                	xchg   %ax,%ax
  100ba4:	66 90                	xchg   %ax,%ax
  100ba6:	66 90                	xchg   %ax,%ax
  100ba8:	66 90                	xchg   %ax,%ax
  100baa:	66 90                	xchg   %ax,%ax
  100bac:	66 90                	xchg   %ax,%ax
  100bae:	66 90                	xchg   %ax,%ax
  100bb0:	66 90                	xchg   %ax,%ax
  100bb2:	66 90                	xchg   %ax,%ax
  100bb4:	66 90                	xchg   %ax,%ax
  100bb6:	66 90                	xchg   %ax,%ax
  100bb8:	66 90                	xchg   %ax,%ax
  100bba:	66 90                	xchg   %ax,%ax
  100bbc:	66 90                	xchg   %ax,%ax
  100bbe:	66 90                	xchg   %ax,%ax
  100bc0:	66 90                	xchg   %ax,%ax
  100bc2:	66 90                	xchg   %ax,%ax
  100bc4:	66 90                	xchg   %ax,%ax
  100bc6:	66 90                	xchg   %ax,%ax
  100bc8:	66 90                	xchg   %ax,%ax
  100bca:	66 90                	xchg   %ax,%ax
  100bcc:	66 90                	xchg   %ax,%ax
  100bce:	66 90                	xchg   %ax,%ax
  100bd0:	66 90                	xchg   %ax,%ax
  100bd2:	66 90                	xchg   %ax,%ax
  100bd4:	66 90                	xchg   %ax,%ax
  100bd6:	66 90                	xchg   %ax,%ax
  100bd8:	66 90                	xchg   %ax,%ax
  100bda:	66 90                	xchg   %ax,%ax
  100bdc:	66 90                	xchg   %ax,%ax
  100bde:	66 90                	xchg   %ax,%ax
  100be0:	66 90                	xchg   %ax,%ax
  100be2:	66 90                	xchg   %ax,%ax
  100be4:	66 90                	xchg   %ax,%ax
  100be6:	66 90                	xchg   %ax,%ax
  100be8:	66 90                	xchg   %ax,%ax
  100bea:	66 90                	xchg   %ax,%ax
  100bec:	66 90                	xchg   %ax,%ax
  100bee:	66 90                	xchg   %ax,%ax
  100bf0:	66 90                	xchg   %ax,%ax
  100bf2:	66 90                	xchg   %ax,%ax
  100bf4:	66 90                	xchg   %ax,%ax
  100bf6:	66 90                	xchg   %ax,%ax
  100bf8:	66 90                	xchg   %ax,%ax
  100bfa:	66 90                	xchg   %ax,%ax
  100bfc:	66 90                	xchg   %ax,%ax
  100bfe:	66 90                	xchg   %ax,%ax
  100c00:	66 90                	xchg   %ax,%ax
  100c02:	66 90                	xchg   %ax,%ax
  100c04:	66 90                	xchg   %ax,%ax
  100c06:	66 90                	xchg   %ax,%ax
  100c08:	66 90                	xchg   %ax,%ax
  100c0a:	66 90                	xchg   %ax,%ax
  100c0c:	66 90                	xchg   %ax,%ax
  100c0e:	66 90                	xchg   %ax,%ax
  100c10:	66 90                	xchg   %ax,%ax
  100c12:	66 90                	xchg   %ax,%ax
  100c14:	66 90                	xchg   %ax,%ax
  100c16:	66 90                	xchg   %ax,%ax
  100c18:	66 90                	xchg   %ax,%ax
  100c1a:	66 90                	xchg   %ax,%ax
  100c1c:	66 90                	xchg   %ax,%ax
  100c1e:	66 90                	xchg   %ax,%ax
  100c20:	66 90                	xchg   %ax,%ax
  100c22:	66 90                	xchg   %ax,%ax
  100c24:	66 90                	xchg   %ax,%ax
  100c26:	66 90                	xchg   %ax,%ax
  100c28:	66 90                	xchg   %ax,%ax
  100c2a:	66 90                	xchg   %ax,%ax
  100c2c:	66 90                	xchg   %ax,%ax
  100c2e:	66 90                	xchg   %ax,%ax
  100c30:	66 90                	xchg   %ax,%ax
  100c32:	66 90                	xchg   %ax,%ax
  100c34:	66 90                	xchg   %ax,%ax
  100c36:	66 90                	xchg   %ax,%ax
  100c38:	66 90                	xchg   %ax,%ax
  100c3a:	66 90                	xchg   %ax,%ax
  100c3c:	66 90                	xchg   %ax,%ax
  100c3e:	66 90                	xchg   %ax,%ax
  100c40:	66 90                	xchg   %ax,%ax
  100c42:	66 90                	xchg   %ax,%ax
  100c44:	66 90                	xchg   %ax,%ax
  100c46:	66 90                	xchg   %ax,%ax
  100c48:	66 90                	xchg   %ax,%ax
  100c4a:	66 90                	xchg   %ax,%ax
  100c4c:	66 90                	xchg   %ax,%ax
  100c4e:	66 90                	xchg   %ax,%ax
  100c50:	66 90                	xchg   %ax,%ax
  100c52:	66 90                	xchg   %ax,%ax
  100c54:	66 90                	xchg   %ax,%ax
  100c56:	66 90                	xchg   %ax,%ax
  100c58:	66 90                	xchg   %ax,%ax
  100c5a:	66 90                	xchg   %ax,%ax
  100c5c:	66 90                	xchg   %ax,%ax
  100c5e:	66 90                	xchg   %ax,%ax
  100c60:	66 90                	xchg   %ax,%ax
  100c62:	66 90                	xchg   %ax,%ax
  100c64:	66 90                	xchg   %ax,%ax
  100c66:	66 90                	xchg   %ax,%ax
  100c68:	66 90                	xchg   %ax,%ax
  100c6a:	66 90                	xchg   %ax,%ax
  100c6c:	66 90                	xchg   %ax,%ax
  100c6e:	66 90                	xchg   %ax,%ax
  100c70:	66 90                	xchg   %ax,%ax
  100c72:	66 90                	xchg   %ax,%ax
  100c74:	66 90                	xchg   %ax,%ax
  100c76:	66 90                	xchg   %ax,%ax
  100c78:	66 90                	xchg   %ax,%ax
  100c7a:	66 90                	xchg   %ax,%ax
  100c7c:	66 90                	xchg   %ax,%ax
  100c7e:	66 90                	xchg   %ax,%ax
  100c80:	66 90                	xchg   %ax,%ax
  100c82:	66 90                	xchg   %ax,%ax
  100c84:	66 90                	xchg   %ax,%ax
  100c86:	66 90                	xchg   %ax,%ax
  100c88:	66 90                	xchg   %ax,%ax
  100c8a:	66 90                	xchg   %ax,%ax
  100c8c:	66 90                	xchg   %ax,%ax
  100c8e:	66 90                	xchg   %ax,%ax
  100c90:	66 90                	xchg   %ax,%ax
  100c92:	66 90                	xchg   %ax,%ax
  100c94:	66 90                	xchg   %ax,%ax
  100c96:	66 90                	xchg   %ax,%ax
  100c98:	66 90                	xchg   %ax,%ax
  100c9a:	66 90                	xchg   %ax,%ax
  100c9c:	66 90                	xchg   %ax,%ax
  100c9e:	66 90                	xchg   %ax,%ax
  100ca0:	66 90                	xchg   %ax,%ax
  100ca2:	66 90                	xchg   %ax,%ax
  100ca4:	66 90                	xchg   %ax,%ax
  100ca6:	66 90                	xchg   %ax,%ax
  100ca8:	66 90                	xchg   %ax,%ax
  100caa:	66 90                	xchg   %ax,%ax
  100cac:	66 90                	xchg   %ax,%ax
  100cae:	66 90                	xchg   %ax,%ax
  100cb0:	66 90                	xchg   %ax,%ax
  100cb2:	66 90                	xchg   %ax,%ax
  100cb4:	66 90                	xchg   %ax,%ax
  100cb6:	66 90                	xchg   %ax,%ax
  100cb8:	66 90                	xchg   %ax,%ax
  100cba:	66 90                	xchg   %ax,%ax
  100cbc:	66 90                	xchg   %ax,%ax
  100cbe:	66 90                	xchg   %ax,%ax
  100cc0:	66 90                	xchg   %ax,%ax
  100cc2:	66 90                	xchg   %ax,%ax
  100cc4:	66 90                	xchg   %ax,%ax
  100cc6:	66 90                	xchg   %ax,%ax
  100cc8:	66 90                	xchg   %ax,%ax
  100cca:	66 90                	xchg   %ax,%ax
  100ccc:	66 90                	xchg   %ax,%ax
  100cce:	66 90                	xchg   %ax,%ax
  100cd0:	66 90                	xchg   %ax,%ax
  100cd2:	66 90                	xchg   %ax,%ax
  100cd4:	66 90                	xchg   %ax,%ax
  100cd6:	66 90                	xchg   %ax,%ax
  100cd8:	66 90                	xchg   %ax,%ax
  100cda:	66 90                	xchg   %ax,%ax
  100cdc:	66 90                	xchg   %ax,%ax
  100cde:	66 90                	xchg   %ax,%ax
  100ce0:	66 90                	xchg   %ax,%ax
  100ce2:	66 90                	xchg   %ax,%ax
  100ce4:	66 90                	xchg   %ax,%ax
  100ce6:	66 90                	xchg   %ax,%ax
  100ce8:	66 90                	xchg   %ax,%ax
  100cea:	66 90                	xchg   %ax,%ax
  100cec:	66 90                	xchg   %ax,%ax
  100cee:	66 90                	xchg   %ax,%ax
  100cf0:	66 90                	xchg   %ax,%ax
  100cf2:	66 90                	xchg   %ax,%ax
  100cf4:	66 90                	xchg   %ax,%ax
  100cf6:	66 90                	xchg   %ax,%ax
  100cf8:	66 90                	xchg   %ax,%ax
  100cfa:	66 90                	xchg   %ax,%ax
  100cfc:	66 90                	xchg   %ax,%ax
  100cfe:	66 90                	xchg   %ax,%ax
  100d00:	66 90                	xchg   %ax,%ax
  100d02:	66 90                	xchg   %ax,%ax
  100d04:	66 90                	xchg   %ax,%ax
  100d06:	66 90                	xchg   %ax,%ax
  100d08:	66 90                	xchg   %ax,%ax
  100d0a:	66 90                	xchg   %ax,%ax
  100d0c:	66 90                	xchg   %ax,%ax
  100d0e:	66 90                	xchg   %ax,%ax
  100d10:	66 90                	xchg   %ax,%ax
  100d12:	66 90                	xchg   %ax,%ax
  100d14:	66 90                	xchg   %ax,%ax
  100d16:	66 90                	xchg   %ax,%ax
  100d18:	66 90                	xchg   %ax,%ax
  100d1a:	66 90                	xchg   %ax,%ax
  100d1c:	66 90                	xchg   %ax,%ax
  100d1e:	66 90                	xchg   %ax,%ax
  100d20:	66 90                	xchg   %ax,%ax
  100d22:	66 90                	xchg   %ax,%ax
  100d24:	66 90                	xchg   %ax,%ax
  100d26:	66 90                	xchg   %ax,%ax
  100d28:	66 90                	xchg   %ax,%ax
  100d2a:	66 90                	xchg   %ax,%ax
  100d2c:	66 90                	xchg   %ax,%ax
  100d2e:	66 90                	xchg   %ax,%ax
  100d30:	66 90                	xchg   %ax,%ax
  100d32:	66 90                	xchg   %ax,%ax
  100d34:	66 90                	xchg   %ax,%ax
  100d36:	66 90                	xchg   %ax,%ax
  100d38:	66 90                	xchg   %ax,%ax
  100d3a:	66 90                	xchg   %ax,%ax
  100d3c:	66 90                	xchg   %ax,%ax
  100d3e:	66 90                	xchg   %ax,%ax
  100d40:	66 90                	xchg   %ax,%ax
  100d42:	66 90                	xchg   %ax,%ax
  100d44:	66 90                	xchg   %ax,%ax
  100d46:	66 90                	xchg   %ax,%ax
  100d48:	66 90                	xchg   %ax,%ax
  100d4a:	66 90                	xchg   %ax,%ax
  100d4c:	66 90                	xchg   %ax,%ax
  100d4e:	66 90                	xchg   %ax,%ax
  100d50:	66 90                	xchg   %ax,%ax
  100d52:	66 90                	xchg   %ax,%ax
  100d54:	66 90                	xchg   %ax,%ax
  100d56:	66 90                	xchg   %ax,%ax
  100d58:	66 90                	xchg   %ax,%ax
  100d5a:	66 90                	xchg   %ax,%ax
  100d5c:	66 90                	xchg   %ax,%ax
  100d5e:	66 90                	xchg   %ax,%ax
  100d60:	66 90                	xchg   %ax,%ax
  100d62:	66 90                	xchg   %ax,%ax
  100d64:	66 90                	xchg   %ax,%ax
  100d66:	66 90                	xchg   %ax,%ax
  100d68:	66 90                	xchg   %ax,%ax
  100d6a:	66 90                	xchg   %ax,%ax
  100d6c:	66 90                	xchg   %ax,%ax
  100d6e:	66 90                	xchg   %ax,%ax
  100d70:	66 90                	xchg   %ax,%ax
  100d72:	66 90                	xchg   %ax,%ax
  100d74:	66 90                	xchg   %ax,%ax
  100d76:	66 90                	xchg   %ax,%ax
  100d78:	66 90                	xchg   %ax,%ax
  100d7a:	66 90                	xchg   %ax,%ax
  100d7c:	66 90                	xchg   %ax,%ax
  100d7e:	66 90                	xchg   %ax,%ax
  100d80:	66 90                	xchg   %ax,%ax
  100d82:	66 90                	xchg   %ax,%ax
  100d84:	66 90                	xchg   %ax,%ax
  100d86:	66 90                	xchg   %ax,%ax
  100d88:	66 90                	xchg   %ax,%ax
  100d8a:	66 90                	xchg   %ax,%ax
  100d8c:	66 90                	xchg   %ax,%ax
  100d8e:	66 90                	xchg   %ax,%ax
  100d90:	66 90                	xchg   %ax,%ax
  100d92:	66 90                	xchg   %ax,%ax
  100d94:	66 90                	xchg   %ax,%ax
  100d96:	66 90                	xchg   %ax,%ax
  100d98:	66 90                	xchg   %ax,%ax
  100d9a:	66 90                	xchg   %ax,%ax
  100d9c:	66 90                	xchg   %ax,%ax
  100d9e:	66 90                	xchg   %ax,%ax
  100da0:	66 90                	xchg   %ax,%ax
  100da2:	66 90                	xchg   %ax,%ax
  100da4:	66 90                	xchg   %ax,%ax
  100da6:	66 90                	xchg   %ax,%ax
  100da8:	66 90                	xchg   %ax,%ax
  100daa:	66 90                	xchg   %ax,%ax
  100dac:	66 90                	xchg   %ax,%ax
  100dae:	66 90                	xchg   %ax,%ax
  100db0:	66 90                	xchg   %ax,%ax
  100db2:	66 90                	xchg   %ax,%ax
  100db4:	66 90                	xchg   %ax,%ax
  100db6:	66 90                	xchg   %ax,%ax
  100db8:	66 90                	xchg   %ax,%ax
  100dba:	66 90                	xchg   %ax,%ax
  100dbc:	66 90                	xchg   %ax,%ax
  100dbe:	66 90                	xchg   %ax,%ax
  100dc0:	66 90                	xchg   %ax,%ax
  100dc2:	66 90                	xchg   %ax,%ax
  100dc4:	66 90                	xchg   %ax,%ax
  100dc6:	66 90                	xchg   %ax,%ax
  100dc8:	66 90                	xchg   %ax,%ax
  100dca:	66 90                	xchg   %ax,%ax
  100dcc:	66 90                	xchg   %ax,%ax
  100dce:	66 90                	xchg   %ax,%ax
  100dd0:	66 90                	xchg   %ax,%ax
  100dd2:	66 90                	xchg   %ax,%ax
  100dd4:	66 90                	xchg   %ax,%ax
  100dd6:	66 90                	xchg   %ax,%ax
  100dd8:	66 90                	xchg   %ax,%ax
  100dda:	66 90                	xchg   %ax,%ax
  100ddc:	66 90                	xchg   %ax,%ax
  100dde:	66 90                	xchg   %ax,%ax
  100de0:	66 90                	xchg   %ax,%ax
  100de2:	66 90                	xchg   %ax,%ax
  100de4:	66 90                	xchg   %ax,%ax
  100de6:	66 90                	xchg   %ax,%ax
  100de8:	66 90                	xchg   %ax,%ax
  100dea:	66 90                	xchg   %ax,%ax
  100dec:	66 90                	xchg   %ax,%ax
  100dee:	66 90                	xchg   %ax,%ax
  100df0:	66 90                	xchg   %ax,%ax
  100df2:	66 90                	xchg   %ax,%ax
  100df4:	66 90                	xchg   %ax,%ax
  100df6:	66 90                	xchg   %ax,%ax
  100df8:	66 90                	xchg   %ax,%ax
  100dfa:	66 90                	xchg   %ax,%ax
  100dfc:	66 90                	xchg   %ax,%ax
  100dfe:	66 90                	xchg   %ax,%ax
  100e00:	66 90                	xchg   %ax,%ax
  100e02:	66 90                	xchg   %ax,%ax
  100e04:	66 90                	xchg   %ax,%ax
  100e06:	66 90                	xchg   %ax,%ax
  100e08:	66 90                	xchg   %ax,%ax
  100e0a:	66 90                	xchg   %ax,%ax
  100e0c:	66 90                	xchg   %ax,%ax
  100e0e:	66 90                	xchg   %ax,%ax
  100e10:	66 90                	xchg   %ax,%ax
  100e12:	66 90                	xchg   %ax,%ax
  100e14:	66 90                	xchg   %ax,%ax
  100e16:	66 90                	xchg   %ax,%ax
  100e18:	66 90                	xchg   %ax,%ax
  100e1a:	66 90                	xchg   %ax,%ax
  100e1c:	66 90                	xchg   %ax,%ax
  100e1e:	66 90                	xchg   %ax,%ax
  100e20:	66 90                	xchg   %ax,%ax
  100e22:	66 90                	xchg   %ax,%ax
  100e24:	66 90                	xchg   %ax,%ax
  100e26:	66 90                	xchg   %ax,%ax
  100e28:	66 90                	xchg   %ax,%ax
  100e2a:	66 90                	xchg   %ax,%ax
  100e2c:	66 90                	xchg   %ax,%ax
  100e2e:	66 90                	xchg   %ax,%ax
  100e30:	66 90                	xchg   %ax,%ax
  100e32:	66 90                	xchg   %ax,%ax
  100e34:	66 90                	xchg   %ax,%ax
  100e36:	66 90                	xchg   %ax,%ax
  100e38:	66 90                	xchg   %ax,%ax
  100e3a:	66 90                	xchg   %ax,%ax
  100e3c:	66 90                	xchg   %ax,%ax
  100e3e:	66 90                	xchg   %ax,%ax
  100e40:	66 90                	xchg   %ax,%ax
  100e42:	66 90                	xchg   %ax,%ax
  100e44:	66 90                	xchg   %ax,%ax
  100e46:	66 90                	xchg   %ax,%ax
  100e48:	66 90                	xchg   %ax,%ax
  100e4a:	66 90                	xchg   %ax,%ax
  100e4c:	66 90                	xchg   %ax,%ax
  100e4e:	66 90                	xchg   %ax,%ax
  100e50:	66 90                	xchg   %ax,%ax
  100e52:	66 90                	xchg   %ax,%ax
  100e54:	66 90                	xchg   %ax,%ax
  100e56:	66 90                	xchg   %ax,%ax
  100e58:	66 90                	xchg   %ax,%ax
  100e5a:	66 90                	xchg   %ax,%ax
  100e5c:	66 90                	xchg   %ax,%ax
  100e5e:	66 90                	xchg   %ax,%ax
  100e60:	66 90                	xchg   %ax,%ax
  100e62:	66 90                	xchg   %ax,%ax
  100e64:	66 90                	xchg   %ax,%ax
  100e66:	66 90                	xchg   %ax,%ax
  100e68:	66 90                	xchg   %ax,%ax
  100e6a:	66 90                	xchg   %ax,%ax
  100e6c:	66 90                	xchg   %ax,%ax
  100e6e:	66 90                	xchg   %ax,%ax
  100e70:	66 90                	xchg   %ax,%ax
  100e72:	66 90                	xchg   %ax,%ax
  100e74:	66 90                	xchg   %ax,%ax
  100e76:	66 90                	xchg   %ax,%ax
  100e78:	66 90                	xchg   %ax,%ax
  100e7a:	66 90                	xchg   %ax,%ax
  100e7c:	66 90                	xchg   %ax,%ax
  100e7e:	66 90                	xchg   %ax,%ax
  100e80:	66 90                	xchg   %ax,%ax
  100e82:	66 90                	xchg   %ax,%ax
  100e84:	66 90                	xchg   %ax,%ax
  100e86:	66 90                	xchg   %ax,%ax
  100e88:	66 90                	xchg   %ax,%ax
  100e8a:	66 90                	xchg   %ax,%ax
  100e8c:	66 90                	xchg   %ax,%ax
  100e8e:	66 90                	xchg   %ax,%ax
  100e90:	66 90                	xchg   %ax,%ax
  100e92:	66 90                	xchg   %ax,%ax
  100e94:	66 90                	xchg   %ax,%ax
  100e96:	66 90                	xchg   %ax,%ax
  100e98:	66 90                	xchg   %ax,%ax
  100e9a:	66 90                	xchg   %ax,%ax
  100e9c:	66 90                	xchg   %ax,%ax
  100e9e:	66 90                	xchg   %ax,%ax
  100ea0:	66 90                	xchg   %ax,%ax
  100ea2:	66 90                	xchg   %ax,%ax
  100ea4:	66 90                	xchg   %ax,%ax
  100ea6:	66 90                	xchg   %ax,%ax
  100ea8:	66 90                	xchg   %ax,%ax
  100eaa:	66 90                	xchg   %ax,%ax
  100eac:	66 90                	xchg   %ax,%ax
  100eae:	66 90                	xchg   %ax,%ax
  100eb0:	66 90                	xchg   %ax,%ax
  100eb2:	66 90                	xchg   %ax,%ax
  100eb4:	66 90                	xchg   %ax,%ax
  100eb6:	66 90                	xchg   %ax,%ax
  100eb8:	66 90                	xchg   %ax,%ax
  100eba:	66 90                	xchg   %ax,%ax
  100ebc:	66 90                	xchg   %ax,%ax
  100ebe:	66 90                	xchg   %ax,%ax
  100ec0:	66 90                	xchg   %ax,%ax
  100ec2:	66 90                	xchg   %ax,%ax
  100ec4:	66 90                	xchg   %ax,%ax
  100ec6:	66 90                	xchg   %ax,%ax
  100ec8:	66 90                	xchg   %ax,%ax
  100eca:	66 90                	xchg   %ax,%ax
  100ecc:	66 90                	xchg   %ax,%ax
  100ece:	66 90                	xchg   %ax,%ax
  100ed0:	66 90                	xchg   %ax,%ax
  100ed2:	66 90                	xchg   %ax,%ax
  100ed4:	66 90                	xchg   %ax,%ax
  100ed6:	66 90                	xchg   %ax,%ax
  100ed8:	66 90                	xchg   %ax,%ax
  100eda:	66 90                	xchg   %ax,%ax
  100edc:	66 90                	xchg   %ax,%ax
  100ede:	66 90                	xchg   %ax,%ax
  100ee0:	66 90                	xchg   %ax,%ax
  100ee2:	66 90                	xchg   %ax,%ax
  100ee4:	66 90                	xchg   %ax,%ax
  100ee6:	66 90                	xchg   %ax,%ax
  100ee8:	66 90                	xchg   %ax,%ax
  100eea:	66 90                	xchg   %ax,%ax
  100eec:	66 90                	xchg   %ax,%ax
  100eee:	66 90                	xchg   %ax,%ax
  100ef0:	66 90                	xchg   %ax,%ax
  100ef2:	66 90                	xchg   %ax,%ax
  100ef4:	66 90                	xchg   %ax,%ax
  100ef6:	66 90                	xchg   %ax,%ax
  100ef8:	66 90                	xchg   %ax,%ax
  100efa:	66 90                	xchg   %ax,%ax
  100efc:	66 90                	xchg   %ax,%ax
  100efe:	66 90                	xchg   %ax,%ax
  100f00:	66 90                	xchg   %ax,%ax
  100f02:	66 90                	xchg   %ax,%ax
  100f04:	66 90                	xchg   %ax,%ax
  100f06:	66 90                	xchg   %ax,%ax
  100f08:	66 90                	xchg   %ax,%ax
  100f0a:	66 90                	xchg   %ax,%ax
  100f0c:	66 90                	xchg   %ax,%ax
  100f0e:	66 90                	xchg   %ax,%ax
  100f10:	66 90                	xchg   %ax,%ax
  100f12:	66 90                	xchg   %ax,%ax
  100f14:	66 90                	xchg   %ax,%ax
  100f16:	66 90                	xchg   %ax,%ax
  100f18:	66 90                	xchg   %ax,%ax
  100f1a:	66 90                	xchg   %ax,%ax
  100f1c:	66 90                	xchg   %ax,%ax
  100f1e:	66 90                	xchg   %ax,%ax
  100f20:	66 90                	xchg   %ax,%ax
  100f22:	66 90                	xchg   %ax,%ax
  100f24:	66 90                	xchg   %ax,%ax
  100f26:	66 90                	xchg   %ax,%ax
  100f28:	66 90                	xchg   %ax,%ax
  100f2a:	66 90                	xchg   %ax,%ax
  100f2c:	66 90                	xchg   %ax,%ax
  100f2e:	66 90                	xchg   %ax,%ax
  100f30:	66 90                	xchg   %ax,%ax
  100f32:	66 90                	xchg   %ax,%ax
  100f34:	66 90                	xchg   %ax,%ax
  100f36:	66 90                	xchg   %ax,%ax
  100f38:	66 90                	xchg   %ax,%ax
  100f3a:	66 90                	xchg   %ax,%ax
  100f3c:	66 90                	xchg   %ax,%ax
  100f3e:	66 90                	xchg   %ax,%ax
  100f40:	66 90                	xchg   %ax,%ax
  100f42:	66 90                	xchg   %ax,%ax
  100f44:	66 90                	xchg   %ax,%ax
  100f46:	66 90                	xchg   %ax,%ax
  100f48:	66 90                	xchg   %ax,%ax
  100f4a:	66 90                	xchg   %ax,%ax
  100f4c:	66 90                	xchg   %ax,%ax
  100f4e:	66 90                	xchg   %ax,%ax
  100f50:	66 90                	xchg   %ax,%ax
  100f52:	66 90                	xchg   %ax,%ax
  100f54:	66 90                	xchg   %ax,%ax
  100f56:	66 90                	xchg   %ax,%ax
  100f58:	66 90                	xchg   %ax,%ax
  100f5a:	66 90                	xchg   %ax,%ax
  100f5c:	66 90                	xchg   %ax,%ax
  100f5e:	66 90                	xchg   %ax,%ax
  100f60:	66 90                	xchg   %ax,%ax
  100f62:	66 90                	xchg   %ax,%ax
  100f64:	66 90                	xchg   %ax,%ax
  100f66:	66 90                	xchg   %ax,%ax
  100f68:	66 90                	xchg   %ax,%ax
  100f6a:	66 90                	xchg   %ax,%ax
  100f6c:	66 90                	xchg   %ax,%ax
  100f6e:	66 90                	xchg   %ax,%ax
  100f70:	66 90                	xchg   %ax,%ax
  100f72:	66 90                	xchg   %ax,%ax
  100f74:	66 90                	xchg   %ax,%ax
  100f76:	66 90                	xchg   %ax,%ax
  100f78:	66 90                	xchg   %ax,%ax
  100f7a:	66 90                	xchg   %ax,%ax
  100f7c:	66 90                	xchg   %ax,%ax
  100f7e:	66 90                	xchg   %ax,%ax
  100f80:	66 90                	xchg   %ax,%ax
  100f82:	66 90                	xchg   %ax,%ax
  100f84:	66 90                	xchg   %ax,%ax
  100f86:	66 90                	xchg   %ax,%ax
  100f88:	66 90                	xchg   %ax,%ax
  100f8a:	66 90                	xchg   %ax,%ax
  100f8c:	66 90                	xchg   %ax,%ax
  100f8e:	66 90                	xchg   %ax,%ax
  100f90:	66 90                	xchg   %ax,%ax
  100f92:	66 90                	xchg   %ax,%ax
  100f94:	66 90                	xchg   %ax,%ax
  100f96:	66 90                	xchg   %ax,%ax
  100f98:	66 90                	xchg   %ax,%ax
  100f9a:	66 90                	xchg   %ax,%ax
  100f9c:	66 90                	xchg   %ax,%ax
  100f9e:	66 90                	xchg   %ax,%ax
  100fa0:	66 90                	xchg   %ax,%ax
  100fa2:	66 90                	xchg   %ax,%ax
  100fa4:	66 90                	xchg   %ax,%ax
  100fa6:	66 90                	xchg   %ax,%ax
  100fa8:	66 90                	xchg   %ax,%ax
  100faa:	66 90                	xchg   %ax,%ax
  100fac:	66 90                	xchg   %ax,%ax
  100fae:	66 90                	xchg   %ax,%ax
  100fb0:	66 90                	xchg   %ax,%ax
  100fb2:	66 90                	xchg   %ax,%ax
  100fb4:	66 90                	xchg   %ax,%ax
  100fb6:	66 90                	xchg   %ax,%ax
  100fb8:	66 90                	xchg   %ax,%ax
  100fba:	66 90                	xchg   %ax,%ax
  100fbc:	66 90                	xchg   %ax,%ax
  100fbe:	66 90                	xchg   %ax,%ax
  100fc0:	66 90                	xchg   %ax,%ax
  100fc2:	66 90                	xchg   %ax,%ax
  100fc4:	66 90                	xchg   %ax,%ax
  100fc6:	66 90                	xchg   %ax,%ax
  100fc8:	66 90                	xchg   %ax,%ax
  100fca:	66 90                	xchg   %ax,%ax
  100fcc:	66 90                	xchg   %ax,%ax
  100fce:	66 90                	xchg   %ax,%ax
  100fd0:	66 90                	xchg   %ax,%ax
  100fd2:	66 90                	xchg   %ax,%ax
  100fd4:	66 90                	xchg   %ax,%ax
  100fd6:	66 90                	xchg   %ax,%ax
  100fd8:	66 90                	xchg   %ax,%ax
  100fda:	66 90                	xchg   %ax,%ax
  100fdc:	66 90                	xchg   %ax,%ax
  100fde:	66 90                	xchg   %ax,%ax
  100fe0:	66 90                	xchg   %ax,%ax
  100fe2:	66 90                	xchg   %ax,%ax
  100fe4:	66 90                	xchg   %ax,%ax
  100fe6:	66 90                	xchg   %ax,%ax
  100fe8:	66 90                	xchg   %ax,%ax
  100fea:	66 90                	xchg   %ax,%ax
  100fec:	66 90                	xchg   %ax,%ax
  100fee:	66 90                	xchg   %ax,%ax
  100ff0:	66 90                	xchg   %ax,%ax
  100ff2:	66 90                	xchg   %ax,%ax
  100ff4:	66 90                	xchg   %ax,%ax
  100ff6:	66 90                	xchg   %ax,%ax
  100ff8:	66 90                	xchg   %ax,%ax
  100ffa:	66 90                	xchg   %ax,%ax
  100ffc:	66 90                	xchg   %ax,%ax
  100ffe:	66 90                	xchg   %ax,%ax

Disassembly of section .text:

c0101000 <kernel_start>:
c0101000:	0f 01 15 58 c5 10 c0 	lgdtl  0xc010c558
c0101007:	ea 0e 10 10 c0 08 00 	ljmp   $0x8,$0xc010100e

c010100e <flush_seg>:
c010100e:	66 b8 10 00          	mov    $0x10,%ax
c0101012:	8e d8                	mov    %eax,%ds
c0101014:	8e c0                	mov    %eax,%es
c0101016:	8e d0                	mov    %eax,%ss
c0101018:	66 b8 00 00          	mov    $0x0,%ax
c010101c:	8e e0                	mov    %eax,%fs
c010101e:	8e e8                	mov    %eax,%gs
c0101020:	bc 90 39 11 c0       	mov    $0xc0113990,%esp
c0101025:	89 1d 8c f9 10 c0    	mov    %ebx,0xc010f98c
c010102b:	fb                   	sti    
c010102c:	e8 0f 00 00 00       	call   c0101040 <bootmain>

c0101031 <stop>:
c0101031:	fa                   	cli    
c0101032:	f4                   	hlt    
c0101033:	eb fc                	jmp    c0101031 <stop>
c0101035:	8d 76 00             	lea    0x0(%esi),%esi
c0101038:	66 90                	xchg   %ax,%ax
c010103a:	66 90                	xchg   %ax,%ax
c010103c:	66 90                	xchg   %ax,%ax
c010103e:	66 90                	xchg   %ax,%ax

c0101040 <bootmain>:
c0101040:	55                   	push   %ebp
c0101041:	89 e5                	mov    %esp,%ebp
c0101043:	83 ec 08             	sub    $0x8,%esp
c0101046:	e8 8f 00 00 00       	call   c01010da <cli>
c010104b:	e8 d0 18 00 00       	call   c0102920 <gdt_init>
c0101050:	e8 e3 66 00 00       	call   c0107738 <init_graph>
c0101055:	83 ec 08             	sub    $0x8,%esp
c0101058:	68 00 a0 10 c0       	push   $0xc010a000
c010105d:	68 19 a0 10 c0       	push   $0xc010a019
c0101062:	e8 23 66 00 00       	call   c010768a <kprintf>
c0101067:	e8 94 00 00 00       	call   c0101100 <idt_init>
c010106c:	e8 54 6e 00 00       	call   c0107ec5 <init_ide>
c0101071:	e8 9b 6a 00 00       	call   c0107b11 <init_keyboard>
c0101076:	c7 04 24 64 00 00 00 	movl   $0x64,(%esp)
c010107d:	e8 7e 12 00 00       	call   c0102300 <init_timer>
c0101082:	e8 c9 26 00 00       	call   c0103750 <init_mem>
c0101087:	e8 e4 58 00 00       	call   c0106970 <backtouser>
c010108c:	e8 ef 59 00 00       	call   c0106a80 <scheduler>
c0101091:	83 c4 10             	add    $0x10,%esp
c0101094:	8d 74 26 00          	lea    0x0(%esi,%eiz,1),%esi
c0101098:	e8 88 6b 00 00       	call   c0107c25 <get_char>
c010109d:	83 ec 08             	sub    $0x8,%esp
c01010a0:	0f be c0             	movsbl %al,%eax
c01010a3:	50                   	push   %eax
c01010a4:	68 1c a0 10 c0       	push   $0xc010a01c
c01010a9:	e8 dc 65 00 00       	call   c010768a <kprintf>
c01010ae:	83 c4 10             	add    $0x10,%esp
c01010b1:	eb e5                	jmp    c0101098 <bootmain+0x58>
c01010b3:	90                   	nop

c01010b4 <outb>:
c01010b4:	8b 54 24 04          	mov    0x4(%esp),%edx
c01010b8:	8b 44 24 08          	mov    0x8(%esp),%eax
c01010bc:	ee                   	out    %al,(%dx)
c01010bd:	c3                   	ret    

c01010be <outw>:
c01010be:	8b 54 24 04          	mov    0x4(%esp),%edx
c01010c2:	8b 44 24 08          	mov    0x8(%esp),%eax
c01010c6:	66 ef                	out    %ax,(%dx)
c01010c8:	c3                   	ret    

c01010c9 <inb>:
c01010c9:	8b 54 24 04          	mov    0x4(%esp),%edx
c01010cd:	31 c0                	xor    %eax,%eax
c01010cf:	ec                   	in     (%dx),%al
c01010d0:	c3                   	ret    

c01010d1 <inw>:
c01010d1:	8b 54 24 04          	mov    0x4(%esp),%edx
c01010d5:	31 c0                	xor    %eax,%eax
c01010d7:	66 ed                	in     (%dx),%ax
c01010d9:	c3                   	ret    

c01010da <cli>:
c01010da:	fa                   	cli    
c01010db:	c3                   	ret    

c01010dc <sti>:
c01010dc:	fb                   	sti    
c01010dd:	c3                   	ret    

c01010de <hlt>:
c01010de:	f4                   	hlt    
c01010df:	c3                   	ret    

c01010e0 <lcr3>:
c01010e0:	8b 44 24 04          	mov    0x4(%esp),%eax
c01010e4:	0f 22 d8             	mov    %eax,%cr3
c01010e7:	c3                   	ret    

c01010e8 <rcr2>:
c01010e8:	0f 20 d0             	mov    %cr2,%eax
c01010eb:	c3                   	ret    

c01010ec <xchg>:
c01010ec:	8b 54 24 04          	mov    0x4(%esp),%edx
c01010f0:	8b 44 24 08          	mov    0x8(%esp),%eax
c01010f4:	87 02                	xchg   %eax,(%edx)
c01010f6:	c3                   	ret    

c01010f7 <invlpg>:
c01010f7:	8b 44 24 04          	mov    0x4(%esp),%eax
c01010fb:	0f 01 38             	invlpg (%eax)
c01010fe:	c3                   	ret    
c01010ff:	90                   	nop

c0101100 <idt_init>:
c0101100:	55                   	push   %ebp
c0101101:	89 e5                	mov    %esp,%ebp
c0101103:	83 ec 18             	sub    $0x18,%esp
c0101106:	e8 55 12 00 00       	call   c0102360 <init_8259A>
c010110b:	83 ec 0c             	sub    $0xc,%esp
c010110e:	6a 64                	push   $0x64
c0101110:	e8 eb 11 00 00       	call   c0102300 <init_timer>
c0101115:	83 c4 10             	add    $0x10,%esp
c0101118:	31 c0                	xor    %eax,%eax
c010111a:	b9 60 d0 10 c0       	mov    $0xc010d060,%ecx
c010111f:	90                   	nop
c0101120:	8b 14 85 60 c5 10 c0 	mov    -0x3fef3aa0(,%eax,4),%edx
c0101127:	c7 04 c5 62 d0 10 c0 	movl   $0x8e000008,-0x3fef2f9e(,%eax,8)
c010112e:	08 00 00 8e 
c0101132:	66 89 14 c5 60 d0 10 	mov    %dx,-0x3fef2fa0(,%eax,8)
c0101139:	c0 
c010113a:	c1 ea 10             	shr    $0x10,%edx
c010113d:	66 89 14 c5 66 d0 10 	mov    %dx,-0x3fef2f9a(,%eax,8)
c0101144:	c0 
c0101145:	83 c0 01             	add    $0x1,%eax
c0101148:	3d 00 01 00 00       	cmp    $0x100,%eax
c010114d:	75 d1                	jne    c0101120 <idt_init+0x20>
c010114f:	a1 60 c7 10 c0       	mov    0xc010c760,%eax
c0101154:	c7 05 62 d4 10 c0 08 	movl   $0xef000008,0xc010d462
c010115b:	00 00 ef 
c010115e:	66 a3 60 d4 10 c0    	mov    %ax,0xc010d460
c0101164:	c1 e8 10             	shr    $0x10,%eax
c0101167:	66 a3 66 d4 10 c0    	mov    %ax,0xc010d466
c010116d:	b8 ff 07 00 00       	mov    $0x7ff,%eax
c0101172:	66 89 45 f2          	mov    %ax,-0xe(%ebp)
c0101176:	66 89 4d f4          	mov    %cx,-0xc(%ebp)
c010117a:	c1 e9 10             	shr    $0x10,%ecx
c010117d:	66 89 4d f6          	mov    %cx,-0xa(%ebp)
c0101181:	8d 45 f2             	lea    -0xe(%ebp),%eax
c0101184:	0f 01 18             	lidtl  (%eax)
c0101187:	83 ec 08             	sub    $0x8,%esp
c010118a:	68 1f a0 10 c0       	push   $0xc010a01f
c010118f:	68 60 d8 10 c0       	push   $0xc010d860
c0101194:	e8 57 2b 00 00       	call   c0103cf0 <init_lock>
c0101199:	83 c4 10             	add    $0x10,%esp
c010119c:	c9                   	leave  
c010119d:	c3                   	ret    
c010119e:	66 90                	xchg   %ax,%ax

c01011a0 <intr>:
c01011a0:	55                   	push   %ebp
c01011a1:	89 e5                	mov    %esp,%ebp
c01011a3:	57                   	push   %edi
c01011a4:	56                   	push   %esi
c01011a5:	53                   	push   %ebx
c01011a6:	83 ec 1c             	sub    $0x1c,%esp
c01011a9:	8b 5d 08             	mov    0x8(%ebp),%ebx
c01011ac:	8b 43 30             	mov    0x30(%ebx),%eax
c01011af:	3d 80 00 00 00       	cmp    $0x80,%eax
c01011b4:	74 1a                	je     c01011d0 <intr+0x30>
c01011b6:	83 e8 0e             	sub    $0xe,%eax
c01011b9:	83 f8 21             	cmp    $0x21,%eax
c01011bc:	0f 87 9e 01 00 00    	ja     c0101360 <intr+0x1c0>
c01011c2:	ff 24 85 20 90 10 c0 	jmp    *-0x3fef6fe0(,%eax,4)
c01011c9:	8d b4 26 00 00 00 00 	lea    0x0(%esi,%eiz,1),%esi
c01011d0:	e8 8b 57 00 00       	call   c0106960 <getproc>
c01011d5:	8b 70 24             	mov    0x24(%eax),%esi
c01011d8:	85 f6                	test   %esi,%esi
c01011da:	0f 85 10 02 00 00    	jne    c01013f0 <intr+0x250>
c01011e0:	e8 7b 57 00 00       	call   c0106960 <getproc>
c01011e5:	89 58 18             	mov    %ebx,0x18(%eax)
c01011e8:	e8 03 0e 00 00       	call   c0101ff0 <syscall>
c01011ed:	e8 6e 57 00 00       	call   c0106960 <getproc>
c01011f2:	8b 58 24             	mov    0x24(%eax),%ebx
c01011f5:	85 db                	test   %ebx,%ebx
c01011f7:	0f 85 9b 00 00 00    	jne    c0101298 <intr+0xf8>
c01011fd:	8d 65 f4             	lea    -0xc(%ebp),%esp
c0101200:	5b                   	pop    %ebx
c0101201:	5e                   	pop    %esi
c0101202:	5f                   	pop    %edi
c0101203:	5d                   	pop    %ebp
c0101204:	c3                   	ret    
c0101205:	8d 76 00             	lea    0x0(%esi),%esi
c0101208:	83 ec 0c             	sub    $0xc,%esp
c010120b:	68 2f a0 10 c0       	push   $0xc010a02f
c0101210:	e8 75 64 00 00       	call   c010768a <kprintf>
c0101215:	59                   	pop    %ecx
c0101216:	5e                   	pop    %esi
c0101217:	6a 20                	push   $0x20
c0101219:	68 a0 00 00 00       	push   $0xa0
c010121e:	e8 91 fe ff ff       	call   c01010b4 <outb>
c0101223:	83 c4 10             	add    $0x10,%esp
c0101226:	8d 76 00             	lea    0x0(%esi),%esi
c0101229:	8d bc 27 00 00 00 00 	lea    0x0(%edi,%eiz,1),%edi
c0101230:	e8 2b 57 00 00       	call   c0106960 <getproc>
c0101235:	85 c0                	test   %eax,%eax
c0101237:	74 1d                	je     c0101256 <intr+0xb6>
c0101239:	e8 22 57 00 00       	call   c0106960 <getproc>
c010123e:	8b 50 24             	mov    0x24(%eax),%edx
c0101241:	85 d2                	test   %edx,%edx
c0101243:	74 11                	je     c0101256 <intr+0xb6>
c0101245:	0f b7 43 3c          	movzwl 0x3c(%ebx),%eax
c0101249:	83 e0 03             	and    $0x3,%eax
c010124c:	66 83 f8 03          	cmp    $0x3,%ax
c0101250:	0f 84 d2 01 00 00    	je     c0101428 <intr+0x288>
c0101256:	e8 05 57 00 00       	call   c0106960 <getproc>
c010125b:	85 c0                	test   %eax,%eax
c010125d:	74 0f                	je     c010126e <intr+0xce>
c010125f:	e8 fc 56 00 00       	call   c0106960 <getproc>
c0101264:	83 78 0c 04          	cmpl   $0x4,0xc(%eax)
c0101268:	0f 84 92 01 00 00    	je     c0101400 <intr+0x260>
c010126e:	e8 ed 56 00 00       	call   c0106960 <getproc>
c0101273:	85 c0                	test   %eax,%eax
c0101275:	74 86                	je     c01011fd <intr+0x5d>
c0101277:	e8 e4 56 00 00       	call   c0106960 <getproc>
c010127c:	8b 40 24             	mov    0x24(%eax),%eax
c010127f:	85 c0                	test   %eax,%eax
c0101281:	0f 84 76 ff ff ff    	je     c01011fd <intr+0x5d>
c0101287:	0f b7 43 3c          	movzwl 0x3c(%ebx),%eax
c010128b:	83 e0 03             	and    $0x3,%eax
c010128e:	66 83 f8 03          	cmp    $0x3,%ax
c0101292:	0f 85 65 ff ff ff    	jne    c01011fd <intr+0x5d>
c0101298:	8d 65 f4             	lea    -0xc(%ebp),%esp
c010129b:	5b                   	pop    %ebx
c010129c:	5e                   	pop    %esi
c010129d:	5f                   	pop    %edi
c010129e:	5d                   	pop    %ebp
c010129f:	e9 bc 5a 00 00       	jmp    c0106d60 <exit>
c01012a4:	8d 74 26 00          	lea    0x0(%esi,%eiz,1),%esi
c01012a8:	e8 53 25 00 00       	call   c0103800 <interrupt_page>
c01012ad:	e8 2c fe ff ff       	call   c01010de <hlt>
c01012b2:	e9 79 ff ff ff       	jmp    c0101230 <intr+0x90>
c01012b7:	89 f6                	mov    %esi,%esi
c01012b9:	8d bc 27 00 00 00 00 	lea    0x0(%edi,%eiz,1),%edi
c01012c0:	83 ec 0c             	sub    $0xc,%esp
c01012c3:	68 60 d8 10 c0       	push   $0xc010d860
c01012c8:	e8 73 29 00 00       	call   c0103c40 <acquire>
c01012cd:	c7 04 24 40 d0 10 c0 	movl   $0xc010d040,(%esp)
c01012d4:	83 05 40 d0 10 c0 01 	addl   $0x1,0xc010d040
c01012db:	e8 00 5e 00 00       	call   c01070e0 <wakeup>
c01012e0:	58                   	pop    %eax
c01012e1:	5a                   	pop    %edx
c01012e2:	ff 35 40 d0 10 c0    	pushl  0xc010d040
c01012e8:	68 24 a0 10 c0       	push   $0xc010a024
c01012ed:	e8 98 63 00 00       	call   c010768a <kprintf>
c01012f2:	c7 04 24 60 d8 10 c0 	movl   $0xc010d860,(%esp)
c01012f9:	e8 a2 29 00 00       	call   c0103ca0 <release>
c01012fe:	59                   	pop    %ecx
c01012ff:	ff 73 30             	pushl  0x30(%ebx)
c0101302:	e8 e9 10 00 00       	call   c01023f0 <empty_int>
c0101307:	83 c4 10             	add    $0x10,%esp
c010130a:	e9 21 ff ff ff       	jmp    c0101230 <intr+0x90>
c010130f:	90                   	nop
c0101310:	e8 45 68 00 00       	call   c0107b5a <interrupt_keyboard>
c0101315:	83 ec 08             	sub    $0x8,%esp
c0101318:	6a 20                	push   $0x20
c010131a:	6a 20                	push   $0x20
c010131c:	e8 93 fd ff ff       	call   c01010b4 <outb>
c0101321:	83 c4 10             	add    $0x10,%esp
c0101324:	e9 07 ff ff ff       	jmp    c0101230 <intr+0x90>
c0101329:	8d b4 26 00 00 00 00 	lea    0x0(%esi,%eiz,1),%esi
c0101330:	e8 81 6d 00 00       	call   c01080b6 <interrupt_ide>
c0101335:	83 ec 08             	sub    $0x8,%esp
c0101338:	6a 20                	push   $0x20
c010133a:	68 a0 00 00 00       	push   $0xa0
c010133f:	e8 70 fd ff ff       	call   c01010b4 <outb>
c0101344:	5f                   	pop    %edi
c0101345:	58                   	pop    %eax
c0101346:	6a 20                	push   $0x20
c0101348:	6a 20                	push   $0x20
c010134a:	e8 65 fd ff ff       	call   c01010b4 <outb>
c010134f:	83 c4 10             	add    $0x10,%esp
c0101352:	e9 d9 fe ff ff       	jmp    c0101230 <intr+0x90>
c0101357:	89 f6                	mov    %esi,%esi
c0101359:	8d bc 27 00 00 00 00 	lea    0x0(%edi,%eiz,1),%edi
c0101360:	e8 fb 55 00 00       	call   c0106960 <getproc>
c0101365:	85 c0                	test   %eax,%eax
c0101367:	74 06                	je     c010136f <intr+0x1cf>
c0101369:	f6 43 3c 03          	testb  $0x3,0x3c(%ebx)
c010136d:	75 25                	jne    c0101394 <intr+0x1f4>
c010136f:	e8 74 fd ff ff       	call   c01010e8 <rcr2>
c0101374:	50                   	push   %eax
c0101375:	ff 73 38             	pushl  0x38(%ebx)
c0101378:	ff 73 30             	pushl  0x30(%ebx)
c010137b:	68 90 c2 10 c0       	push   $0xc010c290
c0101380:	e8 05 63 00 00       	call   c010768a <kprintf>
c0101385:	c7 04 24 44 a0 10 c0 	movl   $0xc010a044,(%esp)
c010138c:	e8 f9 62 00 00       	call   c010768a <kprintf>
c0101391:	83 c4 10             	add    $0x10,%esp
c0101394:	e8 4f fd ff ff       	call   c01010e8 <rcr2>
c0101399:	8b 53 38             	mov    0x38(%ebx),%edx
c010139c:	8b 7b 34             	mov    0x34(%ebx),%edi
c010139f:	8b 73 30             	mov    0x30(%ebx),%esi
c01013a2:	89 45 dc             	mov    %eax,-0x24(%ebp)
c01013a5:	89 55 e0             	mov    %edx,-0x20(%ebp)
c01013a8:	e8 b3 55 00 00       	call   c0106960 <getproc>
c01013ad:	89 45 e4             	mov    %eax,-0x1c(%ebp)
c01013b0:	e8 ab 55 00 00       	call   c0106960 <getproc>
c01013b5:	8b 4d dc             	mov    -0x24(%ebp),%ecx
c01013b8:	8b 55 e0             	mov    -0x20(%ebp),%edx
c01013bb:	83 ec 04             	sub    $0x4,%esp
c01013be:	51                   	push   %ecx
c01013bf:	52                   	push   %edx
c01013c0:	8b 55 e4             	mov    -0x1c(%ebp),%edx
c01013c3:	57                   	push   %edi
c01013c4:	56                   	push   %esi
c01013c5:	83 c2 6c             	add    $0x6c,%edx
c01013c8:	52                   	push   %edx
c01013c9:	ff 70 10             	pushl  0x10(%eax)
c01013cc:	68 b8 c2 10 c0       	push   $0xc010c2b8
c01013d1:	e8 b4 62 00 00       	call   c010768a <kprintf>
c01013d6:	83 c4 20             	add    $0x20,%esp
c01013d9:	e8 82 55 00 00       	call   c0106960 <getproc>
c01013de:	c7 40 24 01 00 00 00 	movl   $0x1,0x24(%eax)
c01013e5:	e9 46 fe ff ff       	jmp    c0101230 <intr+0x90>
c01013ea:	8d b6 00 00 00 00    	lea    0x0(%esi),%esi
c01013f0:	e8 6b 59 00 00       	call   c0106d60 <exit>
c01013f5:	e9 e6 fd ff ff       	jmp    c01011e0 <intr+0x40>
c01013fa:	8d b6 00 00 00 00    	lea    0x0(%esi),%esi
c0101400:	83 7b 30 20          	cmpl   $0x20,0x30(%ebx)
c0101404:	0f 85 64 fe ff ff    	jne    c010126e <intr+0xce>
c010140a:	83 ec 0c             	sub    $0xc,%esp
c010140d:	68 49 a0 10 c0       	push   $0xc010a049
c0101412:	e8 3f 64 00 00       	call   c0107856 <puts>
c0101417:	e8 94 5a 00 00       	call   c0106eb0 <timetosleep>
c010141c:	83 c4 10             	add    $0x10,%esp
c010141f:	e9 4a fe ff ff       	jmp    c010126e <intr+0xce>
c0101424:	8d 74 26 00          	lea    0x0(%esi,%eiz,1),%esi
c0101428:	e8 33 59 00 00       	call   c0106d60 <exit>
c010142d:	e9 24 fe ff ff       	jmp    c0101256 <intr+0xb6>

c0101432 <intr0>:
c0101432:	6a 00                	push   $0x0
c0101434:	6a 00                	push   $0x0
c0101436:	e9 7f 13 00 00       	jmp    c01027ba <dotsame>

c010143b <intr1>:
c010143b:	6a 00                	push   $0x0
c010143d:	6a 01                	push   $0x1
c010143f:	e9 76 13 00 00       	jmp    c01027ba <dotsame>

c0101444 <intr2>:
c0101444:	6a 00                	push   $0x0
c0101446:	6a 02                	push   $0x2
c0101448:	e9 6d 13 00 00       	jmp    c01027ba <dotsame>

c010144d <intr3>:
c010144d:	6a 00                	push   $0x0
c010144f:	6a 03                	push   $0x3
c0101451:	e9 64 13 00 00       	jmp    c01027ba <dotsame>

c0101456 <intr4>:
c0101456:	6a 00                	push   $0x0
c0101458:	6a 04                	push   $0x4
c010145a:	e9 5b 13 00 00       	jmp    c01027ba <dotsame>

c010145f <intr5>:
c010145f:	6a 00                	push   $0x0
c0101461:	6a 05                	push   $0x5
c0101463:	e9 52 13 00 00       	jmp    c01027ba <dotsame>

c0101468 <intr6>:
c0101468:	6a 00                	push   $0x0
c010146a:	6a 06                	push   $0x6
c010146c:	e9 49 13 00 00       	jmp    c01027ba <dotsame>

c0101471 <intr7>:
c0101471:	6a 00                	push   $0x0
c0101473:	6a 07                	push   $0x7
c0101475:	e9 40 13 00 00       	jmp    c01027ba <dotsame>

c010147a <intr8>:
c010147a:	6a 08                	push   $0x8
c010147c:	e9 39 13 00 00       	jmp    c01027ba <dotsame>

c0101481 <intr9>:
c0101481:	6a 00                	push   $0x0
c0101483:	6a 09                	push   $0x9
c0101485:	e9 30 13 00 00       	jmp    c01027ba <dotsame>

c010148a <intr10>:
c010148a:	6a 0a                	push   $0xa
c010148c:	e9 29 13 00 00       	jmp    c01027ba <dotsame>

c0101491 <intr11>:
c0101491:	6a 0b                	push   $0xb
c0101493:	e9 22 13 00 00       	jmp    c01027ba <dotsame>

c0101498 <intr12>:
c0101498:	6a 0c                	push   $0xc
c010149a:	e9 1b 13 00 00       	jmp    c01027ba <dotsame>

c010149f <intr13>:
c010149f:	6a 0d                	push   $0xd
c01014a1:	e9 14 13 00 00       	jmp    c01027ba <dotsame>

c01014a6 <intr14>:
c01014a6:	6a 0e                	push   $0xe
c01014a8:	e9 0d 13 00 00       	jmp    c01027ba <dotsame>

c01014ad <intr15>:
c01014ad:	6a 00                	push   $0x0
c01014af:	6a 0f                	push   $0xf
c01014b1:	e9 04 13 00 00       	jmp    c01027ba <dotsame>

c01014b6 <intr16>:
c01014b6:	6a 00                	push   $0x0
c01014b8:	6a 10                	push   $0x10
c01014ba:	e9 fb 12 00 00       	jmp    c01027ba <dotsame>

c01014bf <intr17>:
c01014bf:	6a 11                	push   $0x11
c01014c1:	e9 f4 12 00 00       	jmp    c01027ba <dotsame>

c01014c6 <intr18>:
c01014c6:	6a 00                	push   $0x0
c01014c8:	6a 12                	push   $0x12
c01014ca:	e9 eb 12 00 00       	jmp    c01027ba <dotsame>

c01014cf <intr19>:
c01014cf:	6a 00                	push   $0x0
c01014d1:	6a 13                	push   $0x13
c01014d3:	e9 e2 12 00 00       	jmp    c01027ba <dotsame>

c01014d8 <intr20>:
c01014d8:	6a 00                	push   $0x0
c01014da:	6a 14                	push   $0x14
c01014dc:	e9 d9 12 00 00       	jmp    c01027ba <dotsame>

c01014e1 <intr21>:
c01014e1:	6a 00                	push   $0x0
c01014e3:	6a 15                	push   $0x15
c01014e5:	e9 d0 12 00 00       	jmp    c01027ba <dotsame>

c01014ea <intr22>:
c01014ea:	6a 00                	push   $0x0
c01014ec:	6a 16                	push   $0x16
c01014ee:	e9 c7 12 00 00       	jmp    c01027ba <dotsame>

c01014f3 <intr23>:
c01014f3:	6a 00                	push   $0x0
c01014f5:	6a 17                	push   $0x17
c01014f7:	e9 be 12 00 00       	jmp    c01027ba <dotsame>

c01014fc <intr24>:
c01014fc:	6a 00                	push   $0x0
c01014fe:	6a 18                	push   $0x18
c0101500:	e9 b5 12 00 00       	jmp    c01027ba <dotsame>

c0101505 <intr25>:
c0101505:	6a 00                	push   $0x0
c0101507:	6a 19                	push   $0x19
c0101509:	e9 ac 12 00 00       	jmp    c01027ba <dotsame>

c010150e <intr26>:
c010150e:	6a 00                	push   $0x0
c0101510:	6a 1a                	push   $0x1a
c0101512:	e9 a3 12 00 00       	jmp    c01027ba <dotsame>

c0101517 <intr27>:
c0101517:	6a 00                	push   $0x0
c0101519:	6a 1b                	push   $0x1b
c010151b:	e9 9a 12 00 00       	jmp    c01027ba <dotsame>

c0101520 <intr28>:
c0101520:	6a 00                	push   $0x0
c0101522:	6a 1c                	push   $0x1c
c0101524:	e9 91 12 00 00       	jmp    c01027ba <dotsame>

c0101529 <intr29>:
c0101529:	6a 00                	push   $0x0
c010152b:	6a 1d                	push   $0x1d
c010152d:	e9 88 12 00 00       	jmp    c01027ba <dotsame>

c0101532 <intr30>:
c0101532:	6a 00                	push   $0x0
c0101534:	6a 1e                	push   $0x1e
c0101536:	e9 7f 12 00 00       	jmp    c01027ba <dotsame>

c010153b <intr31>:
c010153b:	6a 00                	push   $0x0
c010153d:	6a 1f                	push   $0x1f
c010153f:	e9 76 12 00 00       	jmp    c01027ba <dotsame>

c0101544 <intr32>:
c0101544:	6a 00                	push   $0x0
c0101546:	6a 20                	push   $0x20
c0101548:	e9 6d 12 00 00       	jmp    c01027ba <dotsame>

c010154d <intr33>:
c010154d:	6a 00                	push   $0x0
c010154f:	6a 21                	push   $0x21
c0101551:	e9 64 12 00 00       	jmp    c01027ba <dotsame>

c0101556 <intr34>:
c0101556:	6a 00                	push   $0x0
c0101558:	6a 22                	push   $0x22
c010155a:	e9 5b 12 00 00       	jmp    c01027ba <dotsame>

c010155f <intr35>:
c010155f:	6a 00                	push   $0x0
c0101561:	6a 23                	push   $0x23
c0101563:	e9 52 12 00 00       	jmp    c01027ba <dotsame>

c0101568 <intr36>:
c0101568:	6a 00                	push   $0x0
c010156a:	6a 24                	push   $0x24
c010156c:	e9 49 12 00 00       	jmp    c01027ba <dotsame>

c0101571 <intr37>:
c0101571:	6a 00                	push   $0x0
c0101573:	6a 25                	push   $0x25
c0101575:	e9 40 12 00 00       	jmp    c01027ba <dotsame>

c010157a <intr38>:
c010157a:	6a 00                	push   $0x0
c010157c:	6a 26                	push   $0x26
c010157e:	e9 37 12 00 00       	jmp    c01027ba <dotsame>

c0101583 <intr39>:
c0101583:	6a 00                	push   $0x0
c0101585:	6a 27                	push   $0x27
c0101587:	e9 2e 12 00 00       	jmp    c01027ba <dotsame>

c010158c <intr40>:
c010158c:	6a 00                	push   $0x0
c010158e:	6a 28                	push   $0x28
c0101590:	e9 25 12 00 00       	jmp    c01027ba <dotsame>

c0101595 <intr41>:
c0101595:	6a 00                	push   $0x0
c0101597:	6a 29                	push   $0x29
c0101599:	e9 1c 12 00 00       	jmp    c01027ba <dotsame>

c010159e <intr42>:
c010159e:	6a 00                	push   $0x0
c01015a0:	6a 2a                	push   $0x2a
c01015a2:	e9 13 12 00 00       	jmp    c01027ba <dotsame>

c01015a7 <intr43>:
c01015a7:	6a 00                	push   $0x0
c01015a9:	6a 2b                	push   $0x2b
c01015ab:	e9 0a 12 00 00       	jmp    c01027ba <dotsame>

c01015b0 <intr44>:
c01015b0:	6a 00                	push   $0x0
c01015b2:	6a 2c                	push   $0x2c
c01015b4:	e9 01 12 00 00       	jmp    c01027ba <dotsame>

c01015b9 <intr45>:
c01015b9:	6a 00                	push   $0x0
c01015bb:	6a 2d                	push   $0x2d
c01015bd:	e9 f8 11 00 00       	jmp    c01027ba <dotsame>

c01015c2 <intr46>:
c01015c2:	6a 00                	push   $0x0
c01015c4:	6a 2e                	push   $0x2e
c01015c6:	e9 ef 11 00 00       	jmp    c01027ba <dotsame>

c01015cb <intr47>:
c01015cb:	6a 00                	push   $0x0
c01015cd:	6a 2f                	push   $0x2f
c01015cf:	e9 e6 11 00 00       	jmp    c01027ba <dotsame>

c01015d4 <intr48>:
c01015d4:	6a 00                	push   $0x0
c01015d6:	6a 30                	push   $0x30
c01015d8:	e9 dd 11 00 00       	jmp    c01027ba <dotsame>

c01015dd <intr49>:
c01015dd:	6a 00                	push   $0x0
c01015df:	6a 31                	push   $0x31
c01015e1:	e9 d4 11 00 00       	jmp    c01027ba <dotsame>

c01015e6 <intr50>:
c01015e6:	6a 00                	push   $0x0
c01015e8:	6a 32                	push   $0x32
c01015ea:	e9 cb 11 00 00       	jmp    c01027ba <dotsame>

c01015ef <intr51>:
c01015ef:	6a 00                	push   $0x0
c01015f1:	6a 33                	push   $0x33
c01015f3:	e9 c2 11 00 00       	jmp    c01027ba <dotsame>

c01015f8 <intr52>:
c01015f8:	6a 00                	push   $0x0
c01015fa:	6a 34                	push   $0x34
c01015fc:	e9 b9 11 00 00       	jmp    c01027ba <dotsame>

c0101601 <intr53>:
c0101601:	6a 00                	push   $0x0
c0101603:	6a 35                	push   $0x35
c0101605:	e9 b0 11 00 00       	jmp    c01027ba <dotsame>

c010160a <intr54>:
c010160a:	6a 00                	push   $0x0
c010160c:	6a 36                	push   $0x36
c010160e:	e9 a7 11 00 00       	jmp    c01027ba <dotsame>

c0101613 <intr55>:
c0101613:	6a 00                	push   $0x0
c0101615:	6a 37                	push   $0x37
c0101617:	e9 9e 11 00 00       	jmp    c01027ba <dotsame>

c010161c <intr56>:
c010161c:	6a 00                	push   $0x0
c010161e:	6a 38                	push   $0x38
c0101620:	e9 95 11 00 00       	jmp    c01027ba <dotsame>

c0101625 <intr57>:
c0101625:	6a 00                	push   $0x0
c0101627:	6a 39                	push   $0x39
c0101629:	e9 8c 11 00 00       	jmp    c01027ba <dotsame>

c010162e <intr58>:
c010162e:	6a 00                	push   $0x0
c0101630:	6a 3a                	push   $0x3a
c0101632:	e9 83 11 00 00       	jmp    c01027ba <dotsame>

c0101637 <intr59>:
c0101637:	6a 00                	push   $0x0
c0101639:	6a 3b                	push   $0x3b
c010163b:	e9 7a 11 00 00       	jmp    c01027ba <dotsame>

c0101640 <intr60>:
c0101640:	6a 00                	push   $0x0
c0101642:	6a 3c                	push   $0x3c
c0101644:	e9 71 11 00 00       	jmp    c01027ba <dotsame>

c0101649 <intr61>:
c0101649:	6a 00                	push   $0x0
c010164b:	6a 3d                	push   $0x3d
c010164d:	e9 68 11 00 00       	jmp    c01027ba <dotsame>

c0101652 <intr62>:
c0101652:	6a 00                	push   $0x0
c0101654:	6a 3e                	push   $0x3e
c0101656:	e9 5f 11 00 00       	jmp    c01027ba <dotsame>

c010165b <intr63>:
c010165b:	6a 00                	push   $0x0
c010165d:	6a 3f                	push   $0x3f
c010165f:	e9 56 11 00 00       	jmp    c01027ba <dotsame>

c0101664 <intr64>:
c0101664:	6a 00                	push   $0x0
c0101666:	6a 40                	push   $0x40
c0101668:	e9 4d 11 00 00       	jmp    c01027ba <dotsame>

c010166d <intr65>:
c010166d:	6a 00                	push   $0x0
c010166f:	6a 41                	push   $0x41
c0101671:	e9 44 11 00 00       	jmp    c01027ba <dotsame>

c0101676 <intr66>:
c0101676:	6a 00                	push   $0x0
c0101678:	6a 42                	push   $0x42
c010167a:	e9 3b 11 00 00       	jmp    c01027ba <dotsame>

c010167f <intr67>:
c010167f:	6a 00                	push   $0x0
c0101681:	6a 43                	push   $0x43
c0101683:	e9 32 11 00 00       	jmp    c01027ba <dotsame>

c0101688 <intr68>:
c0101688:	6a 00                	push   $0x0
c010168a:	6a 44                	push   $0x44
c010168c:	e9 29 11 00 00       	jmp    c01027ba <dotsame>

c0101691 <intr69>:
c0101691:	6a 00                	push   $0x0
c0101693:	6a 45                	push   $0x45
c0101695:	e9 20 11 00 00       	jmp    c01027ba <dotsame>

c010169a <intr70>:
c010169a:	6a 00                	push   $0x0
c010169c:	6a 46                	push   $0x46
c010169e:	e9 17 11 00 00       	jmp    c01027ba <dotsame>

c01016a3 <intr71>:
c01016a3:	6a 00                	push   $0x0
c01016a5:	6a 47                	push   $0x47
c01016a7:	e9 0e 11 00 00       	jmp    c01027ba <dotsame>

c01016ac <intr72>:
c01016ac:	6a 00                	push   $0x0
c01016ae:	6a 48                	push   $0x48
c01016b0:	e9 05 11 00 00       	jmp    c01027ba <dotsame>

c01016b5 <intr73>:
c01016b5:	6a 00                	push   $0x0
c01016b7:	6a 49                	push   $0x49
c01016b9:	e9 fc 10 00 00       	jmp    c01027ba <dotsame>

c01016be <intr74>:
c01016be:	6a 00                	push   $0x0
c01016c0:	6a 4a                	push   $0x4a
c01016c2:	e9 f3 10 00 00       	jmp    c01027ba <dotsame>

c01016c7 <intr75>:
c01016c7:	6a 00                	push   $0x0
c01016c9:	6a 4b                	push   $0x4b
c01016cb:	e9 ea 10 00 00       	jmp    c01027ba <dotsame>

c01016d0 <intr76>:
c01016d0:	6a 00                	push   $0x0
c01016d2:	6a 4c                	push   $0x4c
c01016d4:	e9 e1 10 00 00       	jmp    c01027ba <dotsame>

c01016d9 <intr77>:
c01016d9:	6a 00                	push   $0x0
c01016db:	6a 4d                	push   $0x4d
c01016dd:	e9 d8 10 00 00       	jmp    c01027ba <dotsame>

c01016e2 <intr78>:
c01016e2:	6a 00                	push   $0x0
c01016e4:	6a 4e                	push   $0x4e
c01016e6:	e9 cf 10 00 00       	jmp    c01027ba <dotsame>

c01016eb <intr79>:
c01016eb:	6a 00                	push   $0x0
c01016ed:	6a 4f                	push   $0x4f
c01016ef:	e9 c6 10 00 00       	jmp    c01027ba <dotsame>

c01016f4 <intr80>:
c01016f4:	6a 00                	push   $0x0
c01016f6:	6a 50                	push   $0x50
c01016f8:	e9 bd 10 00 00       	jmp    c01027ba <dotsame>

c01016fd <intr81>:
c01016fd:	6a 00                	push   $0x0
c01016ff:	6a 51                	push   $0x51
c0101701:	e9 b4 10 00 00       	jmp    c01027ba <dotsame>

c0101706 <intr82>:
c0101706:	6a 00                	push   $0x0
c0101708:	6a 52                	push   $0x52
c010170a:	e9 ab 10 00 00       	jmp    c01027ba <dotsame>

c010170f <intr83>:
c010170f:	6a 00                	push   $0x0
c0101711:	6a 53                	push   $0x53
c0101713:	e9 a2 10 00 00       	jmp    c01027ba <dotsame>

c0101718 <intr84>:
c0101718:	6a 00                	push   $0x0
c010171a:	6a 54                	push   $0x54
c010171c:	e9 99 10 00 00       	jmp    c01027ba <dotsame>

c0101721 <intr85>:
c0101721:	6a 00                	push   $0x0
c0101723:	6a 55                	push   $0x55
c0101725:	e9 90 10 00 00       	jmp    c01027ba <dotsame>

c010172a <intr86>:
c010172a:	6a 00                	push   $0x0
c010172c:	6a 56                	push   $0x56
c010172e:	e9 87 10 00 00       	jmp    c01027ba <dotsame>

c0101733 <intr87>:
c0101733:	6a 00                	push   $0x0
c0101735:	6a 57                	push   $0x57
c0101737:	e9 7e 10 00 00       	jmp    c01027ba <dotsame>

c010173c <intr88>:
c010173c:	6a 00                	push   $0x0
c010173e:	6a 58                	push   $0x58
c0101740:	e9 75 10 00 00       	jmp    c01027ba <dotsame>

c0101745 <intr89>:
c0101745:	6a 00                	push   $0x0
c0101747:	6a 59                	push   $0x59
c0101749:	e9 6c 10 00 00       	jmp    c01027ba <dotsame>

c010174e <intr90>:
c010174e:	6a 00                	push   $0x0
c0101750:	6a 5a                	push   $0x5a
c0101752:	e9 63 10 00 00       	jmp    c01027ba <dotsame>

c0101757 <intr91>:
c0101757:	6a 00                	push   $0x0
c0101759:	6a 5b                	push   $0x5b
c010175b:	e9 5a 10 00 00       	jmp    c01027ba <dotsame>

c0101760 <intr92>:
c0101760:	6a 00                	push   $0x0
c0101762:	6a 5c                	push   $0x5c
c0101764:	e9 51 10 00 00       	jmp    c01027ba <dotsame>

c0101769 <intr93>:
c0101769:	6a 00                	push   $0x0
c010176b:	6a 5d                	push   $0x5d
c010176d:	e9 48 10 00 00       	jmp    c01027ba <dotsame>

c0101772 <intr94>:
c0101772:	6a 00                	push   $0x0
c0101774:	6a 5e                	push   $0x5e
c0101776:	e9 3f 10 00 00       	jmp    c01027ba <dotsame>

c010177b <intr95>:
c010177b:	6a 00                	push   $0x0
c010177d:	6a 5f                	push   $0x5f
c010177f:	e9 36 10 00 00       	jmp    c01027ba <dotsame>

c0101784 <intr96>:
c0101784:	6a 00                	push   $0x0
c0101786:	6a 60                	push   $0x60
c0101788:	e9 2d 10 00 00       	jmp    c01027ba <dotsame>

c010178d <intr97>:
c010178d:	6a 00                	push   $0x0
c010178f:	6a 61                	push   $0x61
c0101791:	e9 24 10 00 00       	jmp    c01027ba <dotsame>

c0101796 <intr98>:
c0101796:	6a 00                	push   $0x0
c0101798:	6a 62                	push   $0x62
c010179a:	e9 1b 10 00 00       	jmp    c01027ba <dotsame>

c010179f <intr99>:
c010179f:	6a 00                	push   $0x0
c01017a1:	6a 63                	push   $0x63
c01017a3:	e9 12 10 00 00       	jmp    c01027ba <dotsame>

c01017a8 <intr100>:
c01017a8:	6a 00                	push   $0x0
c01017aa:	6a 64                	push   $0x64
c01017ac:	e9 09 10 00 00       	jmp    c01027ba <dotsame>

c01017b1 <intr101>:
c01017b1:	6a 00                	push   $0x0
c01017b3:	6a 65                	push   $0x65
c01017b5:	e9 00 10 00 00       	jmp    c01027ba <dotsame>

c01017ba <intr102>:
c01017ba:	6a 00                	push   $0x0
c01017bc:	6a 66                	push   $0x66
c01017be:	e9 f7 0f 00 00       	jmp    c01027ba <dotsame>

c01017c3 <intr103>:
c01017c3:	6a 00                	push   $0x0
c01017c5:	6a 67                	push   $0x67
c01017c7:	e9 ee 0f 00 00       	jmp    c01027ba <dotsame>

c01017cc <intr104>:
c01017cc:	6a 00                	push   $0x0
c01017ce:	6a 68                	push   $0x68
c01017d0:	e9 e5 0f 00 00       	jmp    c01027ba <dotsame>

c01017d5 <intr105>:
c01017d5:	6a 00                	push   $0x0
c01017d7:	6a 69                	push   $0x69
c01017d9:	e9 dc 0f 00 00       	jmp    c01027ba <dotsame>

c01017de <intr106>:
c01017de:	6a 00                	push   $0x0
c01017e0:	6a 6a                	push   $0x6a
c01017e2:	e9 d3 0f 00 00       	jmp    c01027ba <dotsame>

c01017e7 <intr107>:
c01017e7:	6a 00                	push   $0x0
c01017e9:	6a 6b                	push   $0x6b
c01017eb:	e9 ca 0f 00 00       	jmp    c01027ba <dotsame>

c01017f0 <intr108>:
c01017f0:	6a 00                	push   $0x0
c01017f2:	6a 6c                	push   $0x6c
c01017f4:	e9 c1 0f 00 00       	jmp    c01027ba <dotsame>

c01017f9 <intr109>:
c01017f9:	6a 00                	push   $0x0
c01017fb:	6a 6d                	push   $0x6d
c01017fd:	e9 b8 0f 00 00       	jmp    c01027ba <dotsame>

c0101802 <intr110>:
c0101802:	6a 00                	push   $0x0
c0101804:	6a 6e                	push   $0x6e
c0101806:	e9 af 0f 00 00       	jmp    c01027ba <dotsame>

c010180b <intr111>:
c010180b:	6a 00                	push   $0x0
c010180d:	6a 6f                	push   $0x6f
c010180f:	e9 a6 0f 00 00       	jmp    c01027ba <dotsame>

c0101814 <intr112>:
c0101814:	6a 00                	push   $0x0
c0101816:	6a 70                	push   $0x70
c0101818:	e9 9d 0f 00 00       	jmp    c01027ba <dotsame>

c010181d <intr113>:
c010181d:	6a 00                	push   $0x0
c010181f:	6a 71                	push   $0x71
c0101821:	e9 94 0f 00 00       	jmp    c01027ba <dotsame>

c0101826 <intr114>:
c0101826:	6a 00                	push   $0x0
c0101828:	6a 72                	push   $0x72
c010182a:	e9 8b 0f 00 00       	jmp    c01027ba <dotsame>

c010182f <intr115>:
c010182f:	6a 00                	push   $0x0
c0101831:	6a 73                	push   $0x73
c0101833:	e9 82 0f 00 00       	jmp    c01027ba <dotsame>

c0101838 <intr116>:
c0101838:	6a 00                	push   $0x0
c010183a:	6a 74                	push   $0x74
c010183c:	e9 79 0f 00 00       	jmp    c01027ba <dotsame>

c0101841 <intr117>:
c0101841:	6a 00                	push   $0x0
c0101843:	6a 75                	push   $0x75
c0101845:	e9 70 0f 00 00       	jmp    c01027ba <dotsame>

c010184a <intr118>:
c010184a:	6a 00                	push   $0x0
c010184c:	6a 76                	push   $0x76
c010184e:	e9 67 0f 00 00       	jmp    c01027ba <dotsame>

c0101853 <intr119>:
c0101853:	6a 00                	push   $0x0
c0101855:	6a 77                	push   $0x77
c0101857:	e9 5e 0f 00 00       	jmp    c01027ba <dotsame>

c010185c <intr120>:
c010185c:	6a 00                	push   $0x0
c010185e:	6a 78                	push   $0x78
c0101860:	e9 55 0f 00 00       	jmp    c01027ba <dotsame>

c0101865 <intr121>:
c0101865:	6a 00                	push   $0x0
c0101867:	6a 79                	push   $0x79
c0101869:	e9 4c 0f 00 00       	jmp    c01027ba <dotsame>

c010186e <intr122>:
c010186e:	6a 00                	push   $0x0
c0101870:	6a 7a                	push   $0x7a
c0101872:	e9 43 0f 00 00       	jmp    c01027ba <dotsame>

c0101877 <intr123>:
c0101877:	6a 00                	push   $0x0
c0101879:	6a 7b                	push   $0x7b
c010187b:	e9 3a 0f 00 00       	jmp    c01027ba <dotsame>

c0101880 <intr124>:
c0101880:	6a 00                	push   $0x0
c0101882:	6a 7c                	push   $0x7c
c0101884:	e9 31 0f 00 00       	jmp    c01027ba <dotsame>

c0101889 <intr125>:
c0101889:	6a 00                	push   $0x0
c010188b:	6a 7d                	push   $0x7d
c010188d:	e9 28 0f 00 00       	jmp    c01027ba <dotsame>

c0101892 <intr126>:
c0101892:	6a 00                	push   $0x0
c0101894:	6a 7e                	push   $0x7e
c0101896:	e9 1f 0f 00 00       	jmp    c01027ba <dotsame>

c010189b <intr127>:
c010189b:	6a 00                	push   $0x0
c010189d:	6a 7f                	push   $0x7f
c010189f:	e9 16 0f 00 00       	jmp    c01027ba <dotsame>

c01018a4 <intr128>:
c01018a4:	6a 00                	push   $0x0
c01018a6:	68 80 00 00 00       	push   $0x80
c01018ab:	e9 0a 0f 00 00       	jmp    c01027ba <dotsame>

c01018b0 <intr129>:
c01018b0:	6a 00                	push   $0x0
c01018b2:	68 81 00 00 00       	push   $0x81
c01018b7:	e9 fe 0e 00 00       	jmp    c01027ba <dotsame>

c01018bc <intr130>:
c01018bc:	6a 00                	push   $0x0
c01018be:	68 82 00 00 00       	push   $0x82
c01018c3:	e9 f2 0e 00 00       	jmp    c01027ba <dotsame>

c01018c8 <intr131>:
c01018c8:	6a 00                	push   $0x0
c01018ca:	68 83 00 00 00       	push   $0x83
c01018cf:	e9 e6 0e 00 00       	jmp    c01027ba <dotsame>

c01018d4 <intr132>:
c01018d4:	6a 00                	push   $0x0
c01018d6:	68 84 00 00 00       	push   $0x84
c01018db:	e9 da 0e 00 00       	jmp    c01027ba <dotsame>

c01018e0 <intr133>:
c01018e0:	6a 00                	push   $0x0
c01018e2:	68 85 00 00 00       	push   $0x85
c01018e7:	e9 ce 0e 00 00       	jmp    c01027ba <dotsame>

c01018ec <intr134>:
c01018ec:	6a 00                	push   $0x0
c01018ee:	68 86 00 00 00       	push   $0x86
c01018f3:	e9 c2 0e 00 00       	jmp    c01027ba <dotsame>

c01018f8 <intr135>:
c01018f8:	6a 00                	push   $0x0
c01018fa:	68 87 00 00 00       	push   $0x87
c01018ff:	e9 b6 0e 00 00       	jmp    c01027ba <dotsame>

c0101904 <intr136>:
c0101904:	6a 00                	push   $0x0
c0101906:	68 88 00 00 00       	push   $0x88
c010190b:	e9 aa 0e 00 00       	jmp    c01027ba <dotsame>

c0101910 <intr137>:
c0101910:	6a 00                	push   $0x0
c0101912:	68 89 00 00 00       	push   $0x89
c0101917:	e9 9e 0e 00 00       	jmp    c01027ba <dotsame>

c010191c <intr138>:
c010191c:	6a 00                	push   $0x0
c010191e:	68 8a 00 00 00       	push   $0x8a
c0101923:	e9 92 0e 00 00       	jmp    c01027ba <dotsame>

c0101928 <intr139>:
c0101928:	6a 00                	push   $0x0
c010192a:	68 8b 00 00 00       	push   $0x8b
c010192f:	e9 86 0e 00 00       	jmp    c01027ba <dotsame>

c0101934 <intr140>:
c0101934:	6a 00                	push   $0x0
c0101936:	68 8c 00 00 00       	push   $0x8c
c010193b:	e9 7a 0e 00 00       	jmp    c01027ba <dotsame>

c0101940 <intr141>:
c0101940:	6a 00                	push   $0x0
c0101942:	68 8d 00 00 00       	push   $0x8d
c0101947:	e9 6e 0e 00 00       	jmp    c01027ba <dotsame>

c010194c <intr142>:
c010194c:	6a 00                	push   $0x0
c010194e:	68 8e 00 00 00       	push   $0x8e
c0101953:	e9 62 0e 00 00       	jmp    c01027ba <dotsame>

c0101958 <intr143>:
c0101958:	6a 00                	push   $0x0
c010195a:	68 8f 00 00 00       	push   $0x8f
c010195f:	e9 56 0e 00 00       	jmp    c01027ba <dotsame>

c0101964 <intr144>:
c0101964:	6a 00                	push   $0x0
c0101966:	68 90 00 00 00       	push   $0x90
c010196b:	e9 4a 0e 00 00       	jmp    c01027ba <dotsame>

c0101970 <intr145>:
c0101970:	6a 00                	push   $0x0
c0101972:	68 91 00 00 00       	push   $0x91
c0101977:	e9 3e 0e 00 00       	jmp    c01027ba <dotsame>

c010197c <intr146>:
c010197c:	6a 00                	push   $0x0
c010197e:	68 92 00 00 00       	push   $0x92
c0101983:	e9 32 0e 00 00       	jmp    c01027ba <dotsame>

c0101988 <intr147>:
c0101988:	6a 00                	push   $0x0
c010198a:	68 93 00 00 00       	push   $0x93
c010198f:	e9 26 0e 00 00       	jmp    c01027ba <dotsame>

c0101994 <intr148>:
c0101994:	6a 00                	push   $0x0
c0101996:	68 94 00 00 00       	push   $0x94
c010199b:	e9 1a 0e 00 00       	jmp    c01027ba <dotsame>

c01019a0 <intr149>:
c01019a0:	6a 00                	push   $0x0
c01019a2:	68 95 00 00 00       	push   $0x95
c01019a7:	e9 0e 0e 00 00       	jmp    c01027ba <dotsame>

c01019ac <intr150>:
c01019ac:	6a 00                	push   $0x0
c01019ae:	68 96 00 00 00       	push   $0x96
c01019b3:	e9 02 0e 00 00       	jmp    c01027ba <dotsame>

c01019b8 <intr151>:
c01019b8:	6a 00                	push   $0x0
c01019ba:	68 97 00 00 00       	push   $0x97
c01019bf:	e9 f6 0d 00 00       	jmp    c01027ba <dotsame>

c01019c4 <intr152>:
c01019c4:	6a 00                	push   $0x0
c01019c6:	68 98 00 00 00       	push   $0x98
c01019cb:	e9 ea 0d 00 00       	jmp    c01027ba <dotsame>

c01019d0 <intr153>:
c01019d0:	6a 00                	push   $0x0
c01019d2:	68 99 00 00 00       	push   $0x99
c01019d7:	e9 de 0d 00 00       	jmp    c01027ba <dotsame>

c01019dc <intr154>:
c01019dc:	6a 00                	push   $0x0
c01019de:	68 9a 00 00 00       	push   $0x9a
c01019e3:	e9 d2 0d 00 00       	jmp    c01027ba <dotsame>

c01019e8 <intr155>:
c01019e8:	6a 00                	push   $0x0
c01019ea:	68 9b 00 00 00       	push   $0x9b
c01019ef:	e9 c6 0d 00 00       	jmp    c01027ba <dotsame>

c01019f4 <intr156>:
c01019f4:	6a 00                	push   $0x0
c01019f6:	68 9c 00 00 00       	push   $0x9c
c01019fb:	e9 ba 0d 00 00       	jmp    c01027ba <dotsame>

c0101a00 <intr157>:
c0101a00:	6a 00                	push   $0x0
c0101a02:	68 9d 00 00 00       	push   $0x9d
c0101a07:	e9 ae 0d 00 00       	jmp    c01027ba <dotsame>

c0101a0c <intr158>:
c0101a0c:	6a 00                	push   $0x0
c0101a0e:	68 9e 00 00 00       	push   $0x9e
c0101a13:	e9 a2 0d 00 00       	jmp    c01027ba <dotsame>

c0101a18 <intr159>:
c0101a18:	6a 00                	push   $0x0
c0101a1a:	68 9f 00 00 00       	push   $0x9f
c0101a1f:	e9 96 0d 00 00       	jmp    c01027ba <dotsame>

c0101a24 <intr160>:
c0101a24:	6a 00                	push   $0x0
c0101a26:	68 a0 00 00 00       	push   $0xa0
c0101a2b:	e9 8a 0d 00 00       	jmp    c01027ba <dotsame>

c0101a30 <intr161>:
c0101a30:	6a 00                	push   $0x0
c0101a32:	68 a1 00 00 00       	push   $0xa1
c0101a37:	e9 7e 0d 00 00       	jmp    c01027ba <dotsame>

c0101a3c <intr162>:
c0101a3c:	6a 00                	push   $0x0
c0101a3e:	68 a2 00 00 00       	push   $0xa2
c0101a43:	e9 72 0d 00 00       	jmp    c01027ba <dotsame>

c0101a48 <intr163>:
c0101a48:	6a 00                	push   $0x0
c0101a4a:	68 a3 00 00 00       	push   $0xa3
c0101a4f:	e9 66 0d 00 00       	jmp    c01027ba <dotsame>

c0101a54 <intr164>:
c0101a54:	6a 00                	push   $0x0
c0101a56:	68 a4 00 00 00       	push   $0xa4
c0101a5b:	e9 5a 0d 00 00       	jmp    c01027ba <dotsame>

c0101a60 <intr165>:
c0101a60:	6a 00                	push   $0x0
c0101a62:	68 a5 00 00 00       	push   $0xa5
c0101a67:	e9 4e 0d 00 00       	jmp    c01027ba <dotsame>

c0101a6c <intr166>:
c0101a6c:	6a 00                	push   $0x0
c0101a6e:	68 a6 00 00 00       	push   $0xa6
c0101a73:	e9 42 0d 00 00       	jmp    c01027ba <dotsame>

c0101a78 <intr167>:
c0101a78:	6a 00                	push   $0x0
c0101a7a:	68 a7 00 00 00       	push   $0xa7
c0101a7f:	e9 36 0d 00 00       	jmp    c01027ba <dotsame>

c0101a84 <intr168>:
c0101a84:	6a 00                	push   $0x0
c0101a86:	68 a8 00 00 00       	push   $0xa8
c0101a8b:	e9 2a 0d 00 00       	jmp    c01027ba <dotsame>

c0101a90 <intr169>:
c0101a90:	6a 00                	push   $0x0
c0101a92:	68 a9 00 00 00       	push   $0xa9
c0101a97:	e9 1e 0d 00 00       	jmp    c01027ba <dotsame>

c0101a9c <intr170>:
c0101a9c:	6a 00                	push   $0x0
c0101a9e:	68 aa 00 00 00       	push   $0xaa
c0101aa3:	e9 12 0d 00 00       	jmp    c01027ba <dotsame>

c0101aa8 <intr171>:
c0101aa8:	6a 00                	push   $0x0
c0101aaa:	68 ab 00 00 00       	push   $0xab
c0101aaf:	e9 06 0d 00 00       	jmp    c01027ba <dotsame>

c0101ab4 <intr172>:
c0101ab4:	6a 00                	push   $0x0
c0101ab6:	68 ac 00 00 00       	push   $0xac
c0101abb:	e9 fa 0c 00 00       	jmp    c01027ba <dotsame>

c0101ac0 <intr173>:
c0101ac0:	6a 00                	push   $0x0
c0101ac2:	68 ad 00 00 00       	push   $0xad
c0101ac7:	e9 ee 0c 00 00       	jmp    c01027ba <dotsame>

c0101acc <intr174>:
c0101acc:	6a 00                	push   $0x0
c0101ace:	68 ae 00 00 00       	push   $0xae
c0101ad3:	e9 e2 0c 00 00       	jmp    c01027ba <dotsame>

c0101ad8 <intr175>:
c0101ad8:	6a 00                	push   $0x0
c0101ada:	68 af 00 00 00       	push   $0xaf
c0101adf:	e9 d6 0c 00 00       	jmp    c01027ba <dotsame>

c0101ae4 <intr176>:
c0101ae4:	6a 00                	push   $0x0
c0101ae6:	68 b0 00 00 00       	push   $0xb0
c0101aeb:	e9 ca 0c 00 00       	jmp    c01027ba <dotsame>

c0101af0 <intr177>:
c0101af0:	6a 00                	push   $0x0
c0101af2:	68 b1 00 00 00       	push   $0xb1
c0101af7:	e9 be 0c 00 00       	jmp    c01027ba <dotsame>

c0101afc <intr178>:
c0101afc:	6a 00                	push   $0x0
c0101afe:	68 b2 00 00 00       	push   $0xb2
c0101b03:	e9 b2 0c 00 00       	jmp    c01027ba <dotsame>

c0101b08 <intr179>:
c0101b08:	6a 00                	push   $0x0
c0101b0a:	68 b3 00 00 00       	push   $0xb3
c0101b0f:	e9 a6 0c 00 00       	jmp    c01027ba <dotsame>

c0101b14 <intr180>:
c0101b14:	6a 00                	push   $0x0
c0101b16:	68 b4 00 00 00       	push   $0xb4
c0101b1b:	e9 9a 0c 00 00       	jmp    c01027ba <dotsame>

c0101b20 <intr181>:
c0101b20:	6a 00                	push   $0x0
c0101b22:	68 b5 00 00 00       	push   $0xb5
c0101b27:	e9 8e 0c 00 00       	jmp    c01027ba <dotsame>

c0101b2c <intr182>:
c0101b2c:	6a 00                	push   $0x0
c0101b2e:	68 b6 00 00 00       	push   $0xb6
c0101b33:	e9 82 0c 00 00       	jmp    c01027ba <dotsame>

c0101b38 <intr183>:
c0101b38:	6a 00                	push   $0x0
c0101b3a:	68 b7 00 00 00       	push   $0xb7
c0101b3f:	e9 76 0c 00 00       	jmp    c01027ba <dotsame>

c0101b44 <intr184>:
c0101b44:	6a 00                	push   $0x0
c0101b46:	68 b8 00 00 00       	push   $0xb8
c0101b4b:	e9 6a 0c 00 00       	jmp    c01027ba <dotsame>

c0101b50 <intr185>:
c0101b50:	6a 00                	push   $0x0
c0101b52:	68 b9 00 00 00       	push   $0xb9
c0101b57:	e9 5e 0c 00 00       	jmp    c01027ba <dotsame>

c0101b5c <intr186>:
c0101b5c:	6a 00                	push   $0x0
c0101b5e:	68 ba 00 00 00       	push   $0xba
c0101b63:	e9 52 0c 00 00       	jmp    c01027ba <dotsame>

c0101b68 <intr187>:
c0101b68:	6a 00                	push   $0x0
c0101b6a:	68 bb 00 00 00       	push   $0xbb
c0101b6f:	e9 46 0c 00 00       	jmp    c01027ba <dotsame>

c0101b74 <intr188>:
c0101b74:	6a 00                	push   $0x0
c0101b76:	68 bc 00 00 00       	push   $0xbc
c0101b7b:	e9 3a 0c 00 00       	jmp    c01027ba <dotsame>

c0101b80 <intr189>:
c0101b80:	6a 00                	push   $0x0
c0101b82:	68 bd 00 00 00       	push   $0xbd
c0101b87:	e9 2e 0c 00 00       	jmp    c01027ba <dotsame>

c0101b8c <intr190>:
c0101b8c:	6a 00                	push   $0x0
c0101b8e:	68 be 00 00 00       	push   $0xbe
c0101b93:	e9 22 0c 00 00       	jmp    c01027ba <dotsame>

c0101b98 <intr191>:
c0101b98:	6a 00                	push   $0x0
c0101b9a:	68 bf 00 00 00       	push   $0xbf
c0101b9f:	e9 16 0c 00 00       	jmp    c01027ba <dotsame>

c0101ba4 <intr192>:
c0101ba4:	6a 00                	push   $0x0
c0101ba6:	68 c0 00 00 00       	push   $0xc0
c0101bab:	e9 0a 0c 00 00       	jmp    c01027ba <dotsame>

c0101bb0 <intr193>:
c0101bb0:	6a 00                	push   $0x0
c0101bb2:	68 c1 00 00 00       	push   $0xc1
c0101bb7:	e9 fe 0b 00 00       	jmp    c01027ba <dotsame>

c0101bbc <intr194>:
c0101bbc:	6a 00                	push   $0x0
c0101bbe:	68 c2 00 00 00       	push   $0xc2
c0101bc3:	e9 f2 0b 00 00       	jmp    c01027ba <dotsame>

c0101bc8 <intr195>:
c0101bc8:	6a 00                	push   $0x0
c0101bca:	68 c3 00 00 00       	push   $0xc3
c0101bcf:	e9 e6 0b 00 00       	jmp    c01027ba <dotsame>

c0101bd4 <intr196>:
c0101bd4:	6a 00                	push   $0x0
c0101bd6:	68 c4 00 00 00       	push   $0xc4
c0101bdb:	e9 da 0b 00 00       	jmp    c01027ba <dotsame>

c0101be0 <intr197>:
c0101be0:	6a 00                	push   $0x0
c0101be2:	68 c5 00 00 00       	push   $0xc5
c0101be7:	e9 ce 0b 00 00       	jmp    c01027ba <dotsame>

c0101bec <intr198>:
c0101bec:	6a 00                	push   $0x0
c0101bee:	68 c6 00 00 00       	push   $0xc6
c0101bf3:	e9 c2 0b 00 00       	jmp    c01027ba <dotsame>

c0101bf8 <intr199>:
c0101bf8:	6a 00                	push   $0x0
c0101bfa:	68 c7 00 00 00       	push   $0xc7
c0101bff:	e9 b6 0b 00 00       	jmp    c01027ba <dotsame>

c0101c04 <intr200>:
c0101c04:	6a 00                	push   $0x0
c0101c06:	68 c8 00 00 00       	push   $0xc8
c0101c0b:	e9 aa 0b 00 00       	jmp    c01027ba <dotsame>

c0101c10 <intr201>:
c0101c10:	6a 00                	push   $0x0
c0101c12:	68 c9 00 00 00       	push   $0xc9
c0101c17:	e9 9e 0b 00 00       	jmp    c01027ba <dotsame>

c0101c1c <intr202>:
c0101c1c:	6a 00                	push   $0x0
c0101c1e:	68 ca 00 00 00       	push   $0xca
c0101c23:	e9 92 0b 00 00       	jmp    c01027ba <dotsame>

c0101c28 <intr203>:
c0101c28:	6a 00                	push   $0x0
c0101c2a:	68 cb 00 00 00       	push   $0xcb
c0101c2f:	e9 86 0b 00 00       	jmp    c01027ba <dotsame>

c0101c34 <intr204>:
c0101c34:	6a 00                	push   $0x0
c0101c36:	68 cc 00 00 00       	push   $0xcc
c0101c3b:	e9 7a 0b 00 00       	jmp    c01027ba <dotsame>

c0101c40 <intr205>:
c0101c40:	6a 00                	push   $0x0
c0101c42:	68 cd 00 00 00       	push   $0xcd
c0101c47:	e9 6e 0b 00 00       	jmp    c01027ba <dotsame>

c0101c4c <intr206>:
c0101c4c:	6a 00                	push   $0x0
c0101c4e:	68 ce 00 00 00       	push   $0xce
c0101c53:	e9 62 0b 00 00       	jmp    c01027ba <dotsame>

c0101c58 <intr207>:
c0101c58:	6a 00                	push   $0x0
c0101c5a:	68 cf 00 00 00       	push   $0xcf
c0101c5f:	e9 56 0b 00 00       	jmp    c01027ba <dotsame>

c0101c64 <intr208>:
c0101c64:	6a 00                	push   $0x0
c0101c66:	68 d0 00 00 00       	push   $0xd0
c0101c6b:	e9 4a 0b 00 00       	jmp    c01027ba <dotsame>

c0101c70 <intr209>:
c0101c70:	6a 00                	push   $0x0
c0101c72:	68 d1 00 00 00       	push   $0xd1
c0101c77:	e9 3e 0b 00 00       	jmp    c01027ba <dotsame>

c0101c7c <intr210>:
c0101c7c:	6a 00                	push   $0x0
c0101c7e:	68 d2 00 00 00       	push   $0xd2
c0101c83:	e9 32 0b 00 00       	jmp    c01027ba <dotsame>

c0101c88 <intr211>:
c0101c88:	6a 00                	push   $0x0
c0101c8a:	68 d3 00 00 00       	push   $0xd3
c0101c8f:	e9 26 0b 00 00       	jmp    c01027ba <dotsame>

c0101c94 <intr212>:
c0101c94:	6a 00                	push   $0x0
c0101c96:	68 d4 00 00 00       	push   $0xd4
c0101c9b:	e9 1a 0b 00 00       	jmp    c01027ba <dotsame>

c0101ca0 <intr213>:
c0101ca0:	6a 00                	push   $0x0
c0101ca2:	68 d5 00 00 00       	push   $0xd5
c0101ca7:	e9 0e 0b 00 00       	jmp    c01027ba <dotsame>

c0101cac <intr214>:
c0101cac:	6a 00                	push   $0x0
c0101cae:	68 d6 00 00 00       	push   $0xd6
c0101cb3:	e9 02 0b 00 00       	jmp    c01027ba <dotsame>

c0101cb8 <intr215>:
c0101cb8:	6a 00                	push   $0x0
c0101cba:	68 d7 00 00 00       	push   $0xd7
c0101cbf:	e9 f6 0a 00 00       	jmp    c01027ba <dotsame>

c0101cc4 <intr216>:
c0101cc4:	6a 00                	push   $0x0
c0101cc6:	68 d8 00 00 00       	push   $0xd8
c0101ccb:	e9 ea 0a 00 00       	jmp    c01027ba <dotsame>

c0101cd0 <intr217>:
c0101cd0:	6a 00                	push   $0x0
c0101cd2:	68 d9 00 00 00       	push   $0xd9
c0101cd7:	e9 de 0a 00 00       	jmp    c01027ba <dotsame>

c0101cdc <intr218>:
c0101cdc:	6a 00                	push   $0x0
c0101cde:	68 da 00 00 00       	push   $0xda
c0101ce3:	e9 d2 0a 00 00       	jmp    c01027ba <dotsame>

c0101ce8 <intr219>:
c0101ce8:	6a 00                	push   $0x0
c0101cea:	68 db 00 00 00       	push   $0xdb
c0101cef:	e9 c6 0a 00 00       	jmp    c01027ba <dotsame>

c0101cf4 <intr220>:
c0101cf4:	6a 00                	push   $0x0
c0101cf6:	68 dc 00 00 00       	push   $0xdc
c0101cfb:	e9 ba 0a 00 00       	jmp    c01027ba <dotsame>

c0101d00 <intr221>:
c0101d00:	6a 00                	push   $0x0
c0101d02:	68 dd 00 00 00       	push   $0xdd
c0101d07:	e9 ae 0a 00 00       	jmp    c01027ba <dotsame>

c0101d0c <intr222>:
c0101d0c:	6a 00                	push   $0x0
c0101d0e:	68 de 00 00 00       	push   $0xde
c0101d13:	e9 a2 0a 00 00       	jmp    c01027ba <dotsame>

c0101d18 <intr223>:
c0101d18:	6a 00                	push   $0x0
c0101d1a:	68 df 00 00 00       	push   $0xdf
c0101d1f:	e9 96 0a 00 00       	jmp    c01027ba <dotsame>

c0101d24 <intr224>:
c0101d24:	6a 00                	push   $0x0
c0101d26:	68 e0 00 00 00       	push   $0xe0
c0101d2b:	e9 8a 0a 00 00       	jmp    c01027ba <dotsame>

c0101d30 <intr225>:
c0101d30:	6a 00                	push   $0x0
c0101d32:	68 e1 00 00 00       	push   $0xe1
c0101d37:	e9 7e 0a 00 00       	jmp    c01027ba <dotsame>

c0101d3c <intr226>:
c0101d3c:	6a 00                	push   $0x0
c0101d3e:	68 e2 00 00 00       	push   $0xe2
c0101d43:	e9 72 0a 00 00       	jmp    c01027ba <dotsame>

c0101d48 <intr227>:
c0101d48:	6a 00                	push   $0x0
c0101d4a:	68 e3 00 00 00       	push   $0xe3
c0101d4f:	e9 66 0a 00 00       	jmp    c01027ba <dotsame>

c0101d54 <intr228>:
c0101d54:	6a 00                	push   $0x0
c0101d56:	68 e4 00 00 00       	push   $0xe4
c0101d5b:	e9 5a 0a 00 00       	jmp    c01027ba <dotsame>

c0101d60 <intr229>:
c0101d60:	6a 00                	push   $0x0
c0101d62:	68 e5 00 00 00       	push   $0xe5
c0101d67:	e9 4e 0a 00 00       	jmp    c01027ba <dotsame>

c0101d6c <intr230>:
c0101d6c:	6a 00                	push   $0x0
c0101d6e:	68 e6 00 00 00       	push   $0xe6
c0101d73:	e9 42 0a 00 00       	jmp    c01027ba <dotsame>

c0101d78 <intr231>:
c0101d78:	6a 00                	push   $0x0
c0101d7a:	68 e7 00 00 00       	push   $0xe7
c0101d7f:	e9 36 0a 00 00       	jmp    c01027ba <dotsame>

c0101d84 <intr232>:
c0101d84:	6a 00                	push   $0x0
c0101d86:	68 e8 00 00 00       	push   $0xe8
c0101d8b:	e9 2a 0a 00 00       	jmp    c01027ba <dotsame>

c0101d90 <intr233>:
c0101d90:	6a 00                	push   $0x0
c0101d92:	68 e9 00 00 00       	push   $0xe9
c0101d97:	e9 1e 0a 00 00       	jmp    c01027ba <dotsame>

c0101d9c <intr234>:
c0101d9c:	6a 00                	push   $0x0
c0101d9e:	68 ea 00 00 00       	push   $0xea
c0101da3:	e9 12 0a 00 00       	jmp    c01027ba <dotsame>

c0101da8 <intr235>:
c0101da8:	6a 00                	push   $0x0
c0101daa:	68 eb 00 00 00       	push   $0xeb
c0101daf:	e9 06 0a 00 00       	jmp    c01027ba <dotsame>

c0101db4 <intr236>:
c0101db4:	6a 00                	push   $0x0
c0101db6:	68 ec 00 00 00       	push   $0xec
c0101dbb:	e9 fa 09 00 00       	jmp    c01027ba <dotsame>

c0101dc0 <intr237>:
c0101dc0:	6a 00                	push   $0x0
c0101dc2:	68 ed 00 00 00       	push   $0xed
c0101dc7:	e9 ee 09 00 00       	jmp    c01027ba <dotsame>

c0101dcc <intr238>:
c0101dcc:	6a 00                	push   $0x0
c0101dce:	68 ee 00 00 00       	push   $0xee
c0101dd3:	e9 e2 09 00 00       	jmp    c01027ba <dotsame>

c0101dd8 <intr239>:
c0101dd8:	6a 00                	push   $0x0
c0101dda:	68 ef 00 00 00       	push   $0xef
c0101ddf:	e9 d6 09 00 00       	jmp    c01027ba <dotsame>

c0101de4 <intr240>:
c0101de4:	6a 00                	push   $0x0
c0101de6:	68 f0 00 00 00       	push   $0xf0
c0101deb:	e9 ca 09 00 00       	jmp    c01027ba <dotsame>

c0101df0 <intr241>:
c0101df0:	6a 00                	push   $0x0
c0101df2:	68 f1 00 00 00       	push   $0xf1
c0101df7:	e9 be 09 00 00       	jmp    c01027ba <dotsame>

c0101dfc <intr242>:
c0101dfc:	6a 00                	push   $0x0
c0101dfe:	68 f2 00 00 00       	push   $0xf2
c0101e03:	e9 b2 09 00 00       	jmp    c01027ba <dotsame>

c0101e08 <intr243>:
c0101e08:	6a 00                	push   $0x0
c0101e0a:	68 f3 00 00 00       	push   $0xf3
c0101e0f:	e9 a6 09 00 00       	jmp    c01027ba <dotsame>

c0101e14 <intr244>:
c0101e14:	6a 00                	push   $0x0
c0101e16:	68 f4 00 00 00       	push   $0xf4
c0101e1b:	e9 9a 09 00 00       	jmp    c01027ba <dotsame>

c0101e20 <intr245>:
c0101e20:	6a 00                	push   $0x0
c0101e22:	68 f5 00 00 00       	push   $0xf5
c0101e27:	e9 8e 09 00 00       	jmp    c01027ba <dotsame>

c0101e2c <intr246>:
c0101e2c:	6a 00                	push   $0x0
c0101e2e:	68 f6 00 00 00       	push   $0xf6
c0101e33:	e9 82 09 00 00       	jmp    c01027ba <dotsame>

c0101e38 <intr247>:
c0101e38:	6a 00                	push   $0x0
c0101e3a:	68 f7 00 00 00       	push   $0xf7
c0101e3f:	e9 76 09 00 00       	jmp    c01027ba <dotsame>

c0101e44 <intr248>:
c0101e44:	6a 00                	push   $0x0
c0101e46:	68 f8 00 00 00       	push   $0xf8
c0101e4b:	e9 6a 09 00 00       	jmp    c01027ba <dotsame>

c0101e50 <intr249>:
c0101e50:	6a 00                	push   $0x0
c0101e52:	68 f9 00 00 00       	push   $0xf9
c0101e57:	e9 5e 09 00 00       	jmp    c01027ba <dotsame>

c0101e5c <intr250>:
c0101e5c:	6a 00                	push   $0x0
c0101e5e:	68 fa 00 00 00       	push   $0xfa
c0101e63:	e9 52 09 00 00       	jmp    c01027ba <dotsame>

c0101e68 <intr251>:
c0101e68:	6a 00                	push   $0x0
c0101e6a:	68 fb 00 00 00       	push   $0xfb
c0101e6f:	e9 46 09 00 00       	jmp    c01027ba <dotsame>

c0101e74 <intr252>:
c0101e74:	6a 00                	push   $0x0
c0101e76:	68 fc 00 00 00       	push   $0xfc
c0101e7b:	e9 3a 09 00 00       	jmp    c01027ba <dotsame>

c0101e80 <intr253>:
c0101e80:	6a 00                	push   $0x0
c0101e82:	68 fd 00 00 00       	push   $0xfd
c0101e87:	e9 2e 09 00 00       	jmp    c01027ba <dotsame>

c0101e8c <intr254>:
c0101e8c:	6a 00                	push   $0x0
c0101e8e:	68 fe 00 00 00       	push   $0xfe
c0101e93:	e9 22 09 00 00       	jmp    c01027ba <dotsame>

c0101e98 <intr255>:
c0101e98:	6a 00                	push   $0x0
c0101e9a:	68 ff 00 00 00       	push   $0xff
c0101e9f:	e9 16 09 00 00       	jmp    c01027ba <dotsame>
c0101ea4:	66 90                	xchg   %ax,%ax
c0101ea6:	66 90                	xchg   %ax,%ax
c0101ea8:	66 90                	xchg   %ax,%ax
c0101eaa:	66 90                	xchg   %ax,%ax
c0101eac:	66 90                	xchg   %ax,%ax
c0101eae:	66 90                	xchg   %ax,%ax

c0101eb0 <fetchint>:
c0101eb0:	55                   	push   %ebp
c0101eb1:	89 e5                	mov    %esp,%ebp
c0101eb3:	53                   	push   %ebx
c0101eb4:	83 ec 04             	sub    $0x4,%esp
c0101eb7:	8b 5d 08             	mov    0x8(%ebp),%ebx
c0101eba:	e8 a1 4a 00 00       	call   c0106960 <getproc>
c0101ebf:	8b 00                	mov    (%eax),%eax
c0101ec1:	39 d8                	cmp    %ebx,%eax
c0101ec3:	76 1b                	jbe    c0101ee0 <fetchint+0x30>
c0101ec5:	8d 53 04             	lea    0x4(%ebx),%edx
c0101ec8:	39 d0                	cmp    %edx,%eax
c0101eca:	72 14                	jb     c0101ee0 <fetchint+0x30>
c0101ecc:	8b 45 0c             	mov    0xc(%ebp),%eax
c0101ecf:	8b 13                	mov    (%ebx),%edx
c0101ed1:	89 10                	mov    %edx,(%eax)
c0101ed3:	31 c0                	xor    %eax,%eax
c0101ed5:	83 c4 04             	add    $0x4,%esp
c0101ed8:	5b                   	pop    %ebx
c0101ed9:	5d                   	pop    %ebp
c0101eda:	c3                   	ret    
c0101edb:	90                   	nop
c0101edc:	8d 74 26 00          	lea    0x0(%esi,%eiz,1),%esi
c0101ee0:	b8 ff ff ff ff       	mov    $0xffffffff,%eax
c0101ee5:	eb ee                	jmp    c0101ed5 <fetchint+0x25>
c0101ee7:	89 f6                	mov    %esi,%esi
c0101ee9:	8d bc 27 00 00 00 00 	lea    0x0(%edi,%eiz,1),%edi

c0101ef0 <fetchstr>:
c0101ef0:	55                   	push   %ebp
c0101ef1:	89 e5                	mov    %esp,%ebp
c0101ef3:	53                   	push   %ebx
c0101ef4:	83 ec 04             	sub    $0x4,%esp
c0101ef7:	8b 5d 08             	mov    0x8(%ebp),%ebx
c0101efa:	e8 61 4a 00 00       	call   c0106960 <getproc>
c0101eff:	39 18                	cmp    %ebx,(%eax)
c0101f01:	76 29                	jbe    c0101f2c <fetchstr+0x3c>
c0101f03:	8b 4d 0c             	mov    0xc(%ebp),%ecx
c0101f06:	89 da                	mov    %ebx,%edx
c0101f08:	89 19                	mov    %ebx,(%ecx)
c0101f0a:	8b 00                	mov    (%eax),%eax
c0101f0c:	39 c3                	cmp    %eax,%ebx
c0101f0e:	73 1c                	jae    c0101f2c <fetchstr+0x3c>
c0101f10:	80 3b 00             	cmpb   $0x0,(%ebx)
c0101f13:	75 10                	jne    c0101f25 <fetchstr+0x35>
c0101f15:	eb 39                	jmp    c0101f50 <fetchstr+0x60>
c0101f17:	89 f6                	mov    %esi,%esi
c0101f19:	8d bc 27 00 00 00 00 	lea    0x0(%edi,%eiz,1),%edi
c0101f20:	80 3a 00             	cmpb   $0x0,(%edx)
c0101f23:	74 1b                	je     c0101f40 <fetchstr+0x50>
c0101f25:	83 c2 01             	add    $0x1,%edx
c0101f28:	39 d0                	cmp    %edx,%eax
c0101f2a:	77 f4                	ja     c0101f20 <fetchstr+0x30>
c0101f2c:	b8 ff ff ff ff       	mov    $0xffffffff,%eax
c0101f31:	83 c4 04             	add    $0x4,%esp
c0101f34:	5b                   	pop    %ebx
c0101f35:	5d                   	pop    %ebp
c0101f36:	c3                   	ret    
c0101f37:	89 f6                	mov    %esi,%esi
c0101f39:	8d bc 27 00 00 00 00 	lea    0x0(%edi,%eiz,1),%edi
c0101f40:	83 c4 04             	add    $0x4,%esp
c0101f43:	89 d0                	mov    %edx,%eax
c0101f45:	29 d8                	sub    %ebx,%eax
c0101f47:	5b                   	pop    %ebx
c0101f48:	5d                   	pop    %ebp
c0101f49:	c3                   	ret    
c0101f4a:	8d b6 00 00 00 00    	lea    0x0(%esi),%esi
c0101f50:	31 c0                	xor    %eax,%eax
c0101f52:	eb dd                	jmp    c0101f31 <fetchstr+0x41>
c0101f54:	8d b6 00 00 00 00    	lea    0x0(%esi),%esi
c0101f5a:	8d bf 00 00 00 00    	lea    0x0(%edi),%edi

c0101f60 <argint>:
c0101f60:	55                   	push   %ebp
c0101f61:	89 e5                	mov    %esp,%ebp
c0101f63:	56                   	push   %esi
c0101f64:	53                   	push   %ebx
c0101f65:	e8 f6 49 00 00       	call   c0106960 <getproc>
c0101f6a:	8b 40 18             	mov    0x18(%eax),%eax
c0101f6d:	8b 55 08             	mov    0x8(%ebp),%edx
c0101f70:	8b 40 44             	mov    0x44(%eax),%eax
c0101f73:	8d 1c 90             	lea    (%eax,%edx,4),%ebx
c0101f76:	e8 e5 49 00 00       	call   c0106960 <getproc>
c0101f7b:	8b 00                	mov    (%eax),%eax
c0101f7d:	8d 73 04             	lea    0x4(%ebx),%esi
c0101f80:	39 c6                	cmp    %eax,%esi
c0101f82:	73 1c                	jae    c0101fa0 <argint+0x40>
c0101f84:	8d 53 08             	lea    0x8(%ebx),%edx
c0101f87:	39 d0                	cmp    %edx,%eax
c0101f89:	72 15                	jb     c0101fa0 <argint+0x40>
c0101f8b:	8b 45 0c             	mov    0xc(%ebp),%eax
c0101f8e:	8b 53 04             	mov    0x4(%ebx),%edx
c0101f91:	89 10                	mov    %edx,(%eax)
c0101f93:	31 c0                	xor    %eax,%eax
c0101f95:	5b                   	pop    %ebx
c0101f96:	5e                   	pop    %esi
c0101f97:	5d                   	pop    %ebp
c0101f98:	c3                   	ret    
c0101f99:	8d b4 26 00 00 00 00 	lea    0x0(%esi,%eiz,1),%esi
c0101fa0:	b8 ff ff ff ff       	mov    $0xffffffff,%eax
c0101fa5:	eb ee                	jmp    c0101f95 <argint+0x35>
c0101fa7:	89 f6                	mov    %esi,%esi
c0101fa9:	8d bc 27 00 00 00 00 	lea    0x0(%edi,%eiz,1),%edi

c0101fb0 <argstr>:
c0101fb0:	55                   	push   %ebp
c0101fb1:	89 e5                	mov    %esp,%ebp
c0101fb3:	83 ec 20             	sub    $0x20,%esp
c0101fb6:	8d 45 f4             	lea    -0xc(%ebp),%eax
c0101fb9:	50                   	push   %eax
c0101fba:	ff 75 08             	pushl  0x8(%ebp)
c0101fbd:	e8 9e ff ff ff       	call   c0101f60 <argint>
c0101fc2:	83 c4 10             	add    $0x10,%esp
c0101fc5:	85 c0                	test   %eax,%eax
c0101fc7:	78 17                	js     c0101fe0 <argstr+0x30>
c0101fc9:	83 ec 08             	sub    $0x8,%esp
c0101fcc:	ff 75 0c             	pushl  0xc(%ebp)
c0101fcf:	ff 75 f4             	pushl  -0xc(%ebp)
c0101fd2:	e8 19 ff ff ff       	call   c0101ef0 <fetchstr>
c0101fd7:	83 c4 10             	add    $0x10,%esp
c0101fda:	c9                   	leave  
c0101fdb:	c3                   	ret    
c0101fdc:	8d 74 26 00          	lea    0x0(%esi,%eiz,1),%esi
c0101fe0:	b8 ff ff ff ff       	mov    $0xffffffff,%eax
c0101fe5:	c9                   	leave  
c0101fe6:	c3                   	ret    
c0101fe7:	89 f6                	mov    %esi,%esi
c0101fe9:	8d bc 27 00 00 00 00 	lea    0x0(%edi,%eiz,1),%edi

c0101ff0 <syscall>:
c0101ff0:	55                   	push   %ebp
c0101ff1:	89 e5                	mov    %esp,%ebp
c0101ff3:	53                   	push   %ebx
c0101ff4:	83 ec 04             	sub    $0x4,%esp
c0101ff7:	e8 64 49 00 00       	call   c0106960 <getproc>
c0101ffc:	83 ec 0c             	sub    $0xc,%esp
c0101fff:	89 c3                	mov    %eax,%ebx
c0102001:	68 5c a0 10 c0       	push   $0xc010a05c
c0102006:	e8 7f 56 00 00       	call   c010768a <kprintf>
c010200b:	8b 43 18             	mov    0x18(%ebx),%eax
c010200e:	83 c4 10             	add    $0x10,%esp
c0102011:	8b 40 1c             	mov    0x1c(%eax),%eax
c0102014:	8d 50 ff             	lea    -0x1(%eax),%edx
c0102017:	83 fa 0d             	cmp    $0xd,%edx
c010201a:	77 1c                	ja     c0102038 <syscall+0x48>
c010201c:	8b 14 85 c0 90 10 c0 	mov    -0x3fef6f40(,%eax,4),%edx
c0102023:	85 d2                	test   %edx,%edx
c0102025:	74 11                	je     c0102038 <syscall+0x48>
c0102027:	ff d2                	call   *%edx
c0102029:	8b 53 18             	mov    0x18(%ebx),%edx
c010202c:	89 42 1c             	mov    %eax,0x1c(%edx)
c010202f:	8b 5d fc             	mov    -0x4(%ebp),%ebx
c0102032:	c9                   	leave  
c0102033:	c3                   	ret    
c0102034:	8d 74 26 00          	lea    0x0(%esi,%eiz,1),%esi
c0102038:	50                   	push   %eax
c0102039:	8d 43 6c             	lea    0x6c(%ebx),%eax
c010203c:	50                   	push   %eax
c010203d:	ff 73 10             	pushl  0x10(%ebx)
c0102040:	68 f4 c2 10 c0       	push   $0xc010c2f4
c0102045:	e8 40 56 00 00       	call   c010768a <kprintf>
c010204a:	8b 43 18             	mov    0x18(%ebx),%eax
c010204d:	83 c4 10             	add    $0x10,%esp
c0102050:	c7 40 1c ff ff ff ff 	movl   $0xffffffff,0x1c(%eax)
c0102057:	8b 5d fc             	mov    -0x4(%ebp),%ebx
c010205a:	c9                   	leave  
c010205b:	c3                   	ret    
c010205c:	66 90                	xchg   %ax,%ax
c010205e:	66 90                	xchg   %ax,%ax

c0102060 <sys_exec>:
c0102060:	55                   	push   %ebp
c0102061:	89 e5                	mov    %esp,%ebp
c0102063:	57                   	push   %edi
c0102064:	56                   	push   %esi
c0102065:	53                   	push   %ebx
c0102066:	8d 85 5c ff ff ff    	lea    -0xa4(%ebp),%eax
c010206c:	81 ec a4 00 00 00    	sub    $0xa4,%esp
c0102072:	50                   	push   %eax
c0102073:	6a 00                	push   $0x0
c0102075:	e8 36 ff ff ff       	call   c0101fb0 <argstr>
c010207a:	83 c4 10             	add    $0x10,%esp
c010207d:	85 c0                	test   %eax,%eax
c010207f:	0f 88 87 00 00 00    	js     c010210c <sys_exec+0xac>
c0102085:	8d 85 60 ff ff ff    	lea    -0xa0(%ebp),%eax
c010208b:	83 ec 08             	sub    $0x8,%esp
c010208e:	50                   	push   %eax
c010208f:	6a 01                	push   $0x1
c0102091:	e8 ca fe ff ff       	call   c0101f60 <argint>
c0102096:	83 c4 10             	add    $0x10,%esp
c0102099:	85 c0                	test   %eax,%eax
c010209b:	78 6f                	js     c010210c <sys_exec+0xac>
c010209d:	8d 85 68 ff ff ff    	lea    -0x98(%ebp),%eax
c01020a3:	83 ec 04             	sub    $0x4,%esp
c01020a6:	31 db                	xor    %ebx,%ebx
c01020a8:	68 80 00 00 00       	push   $0x80
c01020ad:	6a 00                	push   $0x0
c01020af:	8d bd 64 ff ff ff    	lea    -0x9c(%ebp),%edi
c01020b5:	50                   	push   %eax
c01020b6:	e8 45 18 00 00       	call   c0103900 <mem_set>
c01020bb:	83 c4 10             	add    $0x10,%esp
c01020be:	eb 2c                	jmp    c01020ec <sys_exec+0x8c>
c01020c0:	8b 85 64 ff ff ff    	mov    -0x9c(%ebp),%eax
c01020c6:	85 c0                	test   %eax,%eax
c01020c8:	74 56                	je     c0102120 <sys_exec+0xc0>
c01020ca:	8d 8d 68 ff ff ff    	lea    -0x98(%ebp),%ecx
c01020d0:	83 ec 08             	sub    $0x8,%esp
c01020d3:	8d 14 31             	lea    (%ecx,%esi,1),%edx
c01020d6:	52                   	push   %edx
c01020d7:	50                   	push   %eax
c01020d8:	e8 13 fe ff ff       	call   c0101ef0 <fetchstr>
c01020dd:	83 c4 10             	add    $0x10,%esp
c01020e0:	85 c0                	test   %eax,%eax
c01020e2:	78 28                	js     c010210c <sys_exec+0xac>
c01020e4:	83 c3 01             	add    $0x1,%ebx
c01020e7:	83 fb 20             	cmp    $0x20,%ebx
c01020ea:	74 20                	je     c010210c <sys_exec+0xac>
c01020ec:	8b 85 60 ff ff ff    	mov    -0xa0(%ebp),%eax
c01020f2:	8d 34 9d 00 00 00 00 	lea    0x0(,%ebx,4),%esi
c01020f9:	83 ec 08             	sub    $0x8,%esp
c01020fc:	57                   	push   %edi
c01020fd:	01 f0                	add    %esi,%eax
c01020ff:	50                   	push   %eax
c0102100:	e8 ab fd ff ff       	call   c0101eb0 <fetchint>
c0102105:	83 c4 10             	add    $0x10,%esp
c0102108:	85 c0                	test   %eax,%eax
c010210a:	79 b4                	jns    c01020c0 <sys_exec+0x60>
c010210c:	8d 65 f4             	lea    -0xc(%ebp),%esp
c010210f:	b8 ff ff ff ff       	mov    $0xffffffff,%eax
c0102114:	5b                   	pop    %ebx
c0102115:	5e                   	pop    %esi
c0102116:	5f                   	pop    %edi
c0102117:	5d                   	pop    %ebp
c0102118:	c3                   	ret    
c0102119:	8d b4 26 00 00 00 00 	lea    0x0(%esi,%eiz,1),%esi
c0102120:	8d 85 68 ff ff ff    	lea    -0x98(%ebp),%eax
c0102126:	83 ec 08             	sub    $0x8,%esp
c0102129:	c7 84 9d 68 ff ff ff 	movl   $0x0,-0x98(%ebp,%ebx,4)
c0102130:	00 00 00 00 
c0102134:	50                   	push   %eax
c0102135:	ff b5 5c ff ff ff    	pushl  -0xa4(%ebp)
c010213b:	e8 e0 02 00 00       	call   c0102420 <exec>
c0102140:	83 c4 10             	add    $0x10,%esp
c0102143:	8d 65 f4             	lea    -0xc(%ebp),%esp
c0102146:	5b                   	pop    %ebx
c0102147:	5e                   	pop    %esi
c0102148:	5f                   	pop    %edi
c0102149:	5d                   	pop    %ebp
c010214a:	c3                   	ret    
c010214b:	66 90                	xchg   %ax,%ax
c010214d:	66 90                	xchg   %ax,%ax
c010214f:	90                   	nop

c0102150 <sys_fork>:
c0102150:	55                   	push   %ebp
c0102151:	89 e5                	mov    %esp,%ebp
c0102153:	5d                   	pop    %ebp
c0102154:	e9 37 4a 00 00       	jmp    c0106b90 <fork>
c0102159:	8d b4 26 00 00 00 00 	lea    0x0(%esi,%eiz,1),%esi

c0102160 <sys_exit>:
c0102160:	55                   	push   %ebp
c0102161:	89 e5                	mov    %esp,%ebp
c0102163:	83 ec 08             	sub    $0x8,%esp
c0102166:	e8 f5 4b 00 00       	call   c0106d60 <exit>
c010216b:	31 c0                	xor    %eax,%eax
c010216d:	c9                   	leave  
c010216e:	c3                   	ret    
c010216f:	90                   	nop

c0102170 <sys_wait>:
c0102170:	55                   	push   %ebp
c0102171:	89 e5                	mov    %esp,%ebp
c0102173:	5d                   	pop    %ebp
c0102174:	e9 67 4e 00 00       	jmp    c0106fe0 <wait>
c0102179:	8d b4 26 00 00 00 00 	lea    0x0(%esi,%eiz,1),%esi

c0102180 <sys_kill>:
c0102180:	55                   	push   %ebp
c0102181:	89 e5                	mov    %esp,%ebp
c0102183:	83 ec 20             	sub    $0x20,%esp
c0102186:	8d 45 f4             	lea    -0xc(%ebp),%eax
c0102189:	50                   	push   %eax
c010218a:	6a 00                	push   $0x0
c010218c:	e8 cf fd ff ff       	call   c0101f60 <argint>
c0102191:	83 c4 10             	add    $0x10,%esp
c0102194:	85 c0                	test   %eax,%eax
c0102196:	78 18                	js     c01021b0 <sys_kill+0x30>
c0102198:	83 ec 0c             	sub    $0xc,%esp
c010219b:	ff 75 f4             	pushl  -0xc(%ebp)
c010219e:	e8 9d 4f 00 00       	call   c0107140 <kill>
c01021a3:	83 c4 10             	add    $0x10,%esp
c01021a6:	c9                   	leave  
c01021a7:	c3                   	ret    
c01021a8:	90                   	nop
c01021a9:	8d b4 26 00 00 00 00 	lea    0x0(%esi,%eiz,1),%esi
c01021b0:	b8 ff ff ff ff       	mov    $0xffffffff,%eax
c01021b5:	c9                   	leave  
c01021b6:	c3                   	ret    
c01021b7:	89 f6                	mov    %esi,%esi
c01021b9:	8d bc 27 00 00 00 00 	lea    0x0(%edi,%eiz,1),%edi

c01021c0 <sys_getpid>:
c01021c0:	55                   	push   %ebp
c01021c1:	89 e5                	mov    %esp,%ebp
c01021c3:	83 ec 08             	sub    $0x8,%esp
c01021c6:	e8 95 47 00 00       	call   c0106960 <getproc>
c01021cb:	8b 40 10             	mov    0x10(%eax),%eax
c01021ce:	c9                   	leave  
c01021cf:	c3                   	ret    

c01021d0 <sys_sbrk>:
c01021d0:	55                   	push   %ebp
c01021d1:	89 e5                	mov    %esp,%ebp
c01021d3:	53                   	push   %ebx
c01021d4:	8d 45 f4             	lea    -0xc(%ebp),%eax
c01021d7:	83 ec 1c             	sub    $0x1c,%esp
c01021da:	50                   	push   %eax
c01021db:	6a 00                	push   $0x0
c01021dd:	e8 7e fd ff ff       	call   c0101f60 <argint>
c01021e2:	83 c4 10             	add    $0x10,%esp
c01021e5:	85 c0                	test   %eax,%eax
c01021e7:	78 27                	js     c0102210 <sys_sbrk+0x40>
c01021e9:	e8 72 47 00 00       	call   c0106960 <getproc>
c01021ee:	83 ec 0c             	sub    $0xc,%esp
c01021f1:	8b 18                	mov    (%eax),%ebx
c01021f3:	ff 75 f4             	pushl  -0xc(%ebp)
c01021f6:	e8 25 49 00 00       	call   c0106b20 <growproc>
c01021fb:	83 c4 10             	add    $0x10,%esp
c01021fe:	85 c0                	test   %eax,%eax
c0102200:	78 0e                	js     c0102210 <sys_sbrk+0x40>
c0102202:	89 d8                	mov    %ebx,%eax
c0102204:	8b 5d fc             	mov    -0x4(%ebp),%ebx
c0102207:	c9                   	leave  
c0102208:	c3                   	ret    
c0102209:	8d b4 26 00 00 00 00 	lea    0x0(%esi,%eiz,1),%esi
c0102210:	bb ff ff ff ff       	mov    $0xffffffff,%ebx
c0102215:	eb eb                	jmp    c0102202 <sys_sbrk+0x32>
c0102217:	89 f6                	mov    %esi,%esi
c0102219:	8d bc 27 00 00 00 00 	lea    0x0(%edi,%eiz,1),%edi

c0102220 <sys_sleep>:
c0102220:	55                   	push   %ebp
c0102221:	89 e5                	mov    %esp,%ebp
c0102223:	53                   	push   %ebx
c0102224:	8d 45 f4             	lea    -0xc(%ebp),%eax
c0102227:	83 ec 1c             	sub    $0x1c,%esp
c010222a:	50                   	push   %eax
c010222b:	6a 00                	push   $0x0
c010222d:	e8 2e fd ff ff       	call   c0101f60 <argint>
c0102232:	83 c4 10             	add    $0x10,%esp
c0102235:	85 c0                	test   %eax,%eax
c0102237:	0f 88 8a 00 00 00    	js     c01022c7 <sys_sleep+0xa7>
c010223d:	83 ec 0c             	sub    $0xc,%esp
c0102240:	68 60 d8 10 c0       	push   $0xc010d860
c0102245:	e8 f6 19 00 00       	call   c0103c40 <acquire>
c010224a:	8b 55 f4             	mov    -0xc(%ebp),%edx
c010224d:	83 c4 10             	add    $0x10,%esp
c0102250:	8b 1d 40 d0 10 c0    	mov    0xc010d040,%ebx
c0102256:	85 d2                	test   %edx,%edx
c0102258:	75 27                	jne    c0102281 <sys_sleep+0x61>
c010225a:	eb 54                	jmp    c01022b0 <sys_sleep+0x90>
c010225c:	8d 74 26 00          	lea    0x0(%esi,%eiz,1),%esi
c0102260:	83 ec 08             	sub    $0x8,%esp
c0102263:	68 60 d8 10 c0       	push   $0xc010d860
c0102268:	68 40 d0 10 c0       	push   $0xc010d040
c010226d:	e8 9e 4c 00 00       	call   c0106f10 <sleep>
c0102272:	a1 40 d0 10 c0       	mov    0xc010d040,%eax
c0102277:	83 c4 10             	add    $0x10,%esp
c010227a:	29 d8                	sub    %ebx,%eax
c010227c:	3b 45 f4             	cmp    -0xc(%ebp),%eax
c010227f:	73 2f                	jae    c01022b0 <sys_sleep+0x90>
c0102281:	e8 da 46 00 00       	call   c0106960 <getproc>
c0102286:	8b 40 24             	mov    0x24(%eax),%eax
c0102289:	85 c0                	test   %eax,%eax
c010228b:	74 d3                	je     c0102260 <sys_sleep+0x40>
c010228d:	83 ec 0c             	sub    $0xc,%esp
c0102290:	68 60 d8 10 c0       	push   $0xc010d860
c0102295:	e8 06 1a 00 00       	call   c0103ca0 <release>
c010229a:	83 c4 10             	add    $0x10,%esp
c010229d:	b8 ff ff ff ff       	mov    $0xffffffff,%eax
c01022a2:	8b 5d fc             	mov    -0x4(%ebp),%ebx
c01022a5:	c9                   	leave  
c01022a6:	c3                   	ret    
c01022a7:	89 f6                	mov    %esi,%esi
c01022a9:	8d bc 27 00 00 00 00 	lea    0x0(%edi,%eiz,1),%edi
c01022b0:	83 ec 0c             	sub    $0xc,%esp
c01022b3:	68 60 d8 10 c0       	push   $0xc010d860
c01022b8:	e8 e3 19 00 00       	call   c0103ca0 <release>
c01022bd:	83 c4 10             	add    $0x10,%esp
c01022c0:	31 c0                	xor    %eax,%eax
c01022c2:	8b 5d fc             	mov    -0x4(%ebp),%ebx
c01022c5:	c9                   	leave  
c01022c6:	c3                   	ret    
c01022c7:	b8 ff ff ff ff       	mov    $0xffffffff,%eax
c01022cc:	eb f4                	jmp    c01022c2 <sys_sleep+0xa2>
c01022ce:	66 90                	xchg   %ax,%ax

c01022d0 <sys_uptime>:
c01022d0:	55                   	push   %ebp
c01022d1:	89 e5                	mov    %esp,%ebp
c01022d3:	53                   	push   %ebx
c01022d4:	83 ec 10             	sub    $0x10,%esp
c01022d7:	68 60 d8 10 c0       	push   $0xc010d860
c01022dc:	e8 5f 19 00 00       	call   c0103c40 <acquire>
c01022e1:	8b 1d 40 d0 10 c0    	mov    0xc010d040,%ebx
c01022e7:	c7 04 24 60 d8 10 c0 	movl   $0xc010d860,(%esp)
c01022ee:	e8 ad 19 00 00       	call   c0103ca0 <release>
c01022f3:	89 d8                	mov    %ebx,%eax
c01022f5:	8b 5d fc             	mov    -0x4(%ebp),%ebx
c01022f8:	c9                   	leave  
c01022f9:	c3                   	ret    
c01022fa:	66 90                	xchg   %ax,%ax
c01022fc:	66 90                	xchg   %ax,%ax
c01022fe:	66 90                	xchg   %ax,%ax

c0102300 <init_timer>:
c0102300:	55                   	push   %ebp
c0102301:	b8 dc 34 12 00       	mov    $0x1234dc,%eax
c0102306:	31 d2                	xor    %edx,%edx
c0102308:	89 e5                	mov    %esp,%ebp
c010230a:	53                   	push   %ebx
c010230b:	83 ec 0c             	sub    $0xc,%esp
c010230e:	f7 75 08             	divl   0x8(%ebp)
c0102311:	6a 36                	push   $0x36
c0102313:	6a 43                	push   $0x43
c0102315:	89 c3                	mov    %eax,%ebx
c0102317:	e8 98 ed ff ff       	call   c01010b4 <outb>
c010231c:	58                   	pop    %eax
c010231d:	5a                   	pop    %edx
c010231e:	0f b6 c3             	movzbl %bl,%eax
c0102321:	0f b6 df             	movzbl %bh,%ebx
c0102324:	50                   	push   %eax
c0102325:	6a 40                	push   $0x40
c0102327:	e8 88 ed ff ff       	call   c01010b4 <outb>
c010232c:	59                   	pop    %ecx
c010232d:	58                   	pop    %eax
c010232e:	53                   	push   %ebx
c010232f:	6a 40                	push   $0x40
c0102331:	e8 7e ed ff ff       	call   c01010b4 <outb>
c0102336:	83 c4 10             	add    $0x10,%esp
c0102339:	8b 5d fc             	mov    -0x4(%ebp),%ebx
c010233c:	c9                   	leave  
c010233d:	c3                   	ret    

c010233e <swtch>:
c010233e:	8b 44 24 04          	mov    0x4(%esp),%eax
c0102342:	8b 54 24 08          	mov    0x8(%esp),%edx
c0102346:	55                   	push   %ebp
c0102347:	53                   	push   %ebx
c0102348:	56                   	push   %esi
c0102349:	57                   	push   %edi
c010234a:	89 20                	mov    %esp,(%eax)
c010234c:	89 d4                	mov    %edx,%esp
c010234e:	5f                   	pop    %edi
c010234f:	5e                   	pop    %esi
c0102350:	5b                   	pop    %ebx
c0102351:	5d                   	pop    %ebp
c0102352:	c3                   	ret    
c0102353:	66 90                	xchg   %ax,%ax
c0102355:	66 90                	xchg   %ax,%ax
c0102357:	66 90                	xchg   %ax,%ax
c0102359:	66 90                	xchg   %ax,%ax
c010235b:	66 90                	xchg   %ax,%ax
c010235d:	66 90                	xchg   %ax,%ax
c010235f:	90                   	nop

c0102360 <init_8259A>:
c0102360:	55                   	push   %ebp
c0102361:	89 e5                	mov    %esp,%ebp
c0102363:	83 ec 10             	sub    $0x10,%esp
c0102366:	6a 11                	push   $0x11
c0102368:	6a 20                	push   $0x20
c010236a:	e8 45 ed ff ff       	call   c01010b4 <outb>
c010236f:	58                   	pop    %eax
c0102370:	5a                   	pop    %edx
c0102371:	6a 11                	push   $0x11
c0102373:	68 a0 00 00 00       	push   $0xa0
c0102378:	e8 37 ed ff ff       	call   c01010b4 <outb>
c010237d:	59                   	pop    %ecx
c010237e:	58                   	pop    %eax
c010237f:	6a 20                	push   $0x20
c0102381:	6a 21                	push   $0x21
c0102383:	e8 2c ed ff ff       	call   c01010b4 <outb>
c0102388:	58                   	pop    %eax
c0102389:	5a                   	pop    %edx
c010238a:	6a 28                	push   $0x28
c010238c:	68 a1 00 00 00       	push   $0xa1
c0102391:	e8 1e ed ff ff       	call   c01010b4 <outb>
c0102396:	59                   	pop    %ecx
c0102397:	58                   	pop    %eax
c0102398:	6a 04                	push   $0x4
c010239a:	6a 21                	push   $0x21
c010239c:	e8 13 ed ff ff       	call   c01010b4 <outb>
c01023a1:	58                   	pop    %eax
c01023a2:	5a                   	pop    %edx
c01023a3:	6a 02                	push   $0x2
c01023a5:	68 a1 00 00 00       	push   $0xa1
c01023aa:	e8 05 ed ff ff       	call   c01010b4 <outb>
c01023af:	59                   	pop    %ecx
c01023b0:	58                   	pop    %eax
c01023b1:	6a 01                	push   $0x1
c01023b3:	6a 21                	push   $0x21
c01023b5:	e8 fa ec ff ff       	call   c01010b4 <outb>
c01023ba:	58                   	pop    %eax
c01023bb:	5a                   	pop    %edx
c01023bc:	6a 01                	push   $0x1
c01023be:	68 a1 00 00 00       	push   $0xa1
c01023c3:	e8 ec ec ff ff       	call   c01010b4 <outb>
c01023c8:	59                   	pop    %ecx
c01023c9:	58                   	pop    %eax
c01023ca:	6a 00                	push   $0x0
c01023cc:	6a 21                	push   $0x21
c01023ce:	e8 e1 ec ff ff       	call   c01010b4 <outb>
c01023d3:	58                   	pop    %eax
c01023d4:	5a                   	pop    %edx
c01023d5:	6a 00                	push   $0x0
c01023d7:	68 a1 00 00 00       	push   $0xa1
c01023dc:	e8 d3 ec ff ff       	call   c01010b4 <outb>
c01023e1:	83 c4 10             	add    $0x10,%esp
c01023e4:	c9                   	leave  
c01023e5:	c3                   	ret    
c01023e6:	8d 76 00             	lea    0x0(%esi),%esi
c01023e9:	8d bc 27 00 00 00 00 	lea    0x0(%edi,%eiz,1),%edi

c01023f0 <empty_int>:
c01023f0:	55                   	push   %ebp
c01023f1:	89 e5                	mov    %esp,%ebp
c01023f3:	83 ec 08             	sub    $0x8,%esp
c01023f6:	83 7d 08 27          	cmpl   $0x27,0x8(%ebp)
c01023fa:	7e 12                	jle    c010240e <empty_int+0x1e>
c01023fc:	83 ec 08             	sub    $0x8,%esp
c01023ff:	6a 20                	push   $0x20
c0102401:	68 a0 00 00 00       	push   $0xa0
c0102406:	e8 a9 ec ff ff       	call   c01010b4 <outb>
c010240b:	83 c4 10             	add    $0x10,%esp
c010240e:	83 ec 08             	sub    $0x8,%esp
c0102411:	6a 20                	push   $0x20
c0102413:	6a 20                	push   $0x20
c0102415:	e8 9a ec ff ff       	call   c01010b4 <outb>
c010241a:	83 c4 10             	add    $0x10,%esp
c010241d:	c9                   	leave  
c010241e:	c3                   	ret    
c010241f:	90                   	nop

c0102420 <exec>:
c0102420:	55                   	push   %ebp
c0102421:	89 e5                	mov    %esp,%ebp
c0102423:	57                   	push   %edi
c0102424:	56                   	push   %esi
c0102425:	53                   	push   %ebx
c0102426:	81 ec 0c 01 00 00    	sub    $0x10c,%esp
c010242c:	e8 2f 45 00 00       	call   c0106960 <getproc>
c0102431:	83 ec 08             	sub    $0x8,%esp
c0102434:	89 85 e8 fe ff ff    	mov    %eax,-0x118(%ebp)
c010243a:	6a 00                	push   $0x0
c010243c:	ff 75 08             	pushl  0x8(%ebp)
c010243f:	e8 dc 25 00 00       	call   c0104a20 <vfs_open>
c0102444:	83 c4 10             	add    $0x10,%esp
c0102447:	85 c0                	test   %eax,%eax
c0102449:	0f 84 51 03 00 00    	je     c01027a0 <exec+0x380>
c010244f:	89 c6                	mov    %eax,%esi
c0102451:	8b 85 e8 fe ff ff    	mov    -0x118(%ebp),%eax
c0102457:	83 ec 04             	sub    $0x4,%esp
c010245a:	89 b0 80 00 00 00    	mov    %esi,0x80(%eax)
c0102460:	8d 85 24 ff ff ff    	lea    -0xdc(%ebp),%eax
c0102466:	6a 34                	push   $0x34
c0102468:	50                   	push   %eax
c0102469:	56                   	push   %esi
c010246a:	e8 c1 28 00 00       	call   c0104d30 <vfs_read>
c010246f:	83 c4 10             	add    $0x10,%esp
c0102472:	83 f8 34             	cmp    $0x34,%eax
c0102475:	0f 85 2f 01 00 00    	jne    c01025aa <exec+0x18a>
c010247b:	81 bd 24 ff ff ff 7f 	cmpl   $0x464c457f,-0xdc(%ebp)
c0102482:	45 4c 46 
c0102485:	0f 85 1f 01 00 00    	jne    c01025aa <exec+0x18a>
c010248b:	e8 10 09 00 00       	call   c0102da0 <setup_kvm>
c0102490:	85 c0                	test   %eax,%eax
c0102492:	89 85 ec fe ff ff    	mov    %eax,-0x114(%ebp)
c0102498:	0f 84 0c 01 00 00    	je     c01025aa <exec+0x18a>
c010249e:	66 83 bd 50 ff ff ff 	cmpw   $0x0,-0xb0(%ebp)
c01024a5:	00 
c01024a6:	8b 85 40 ff ff ff    	mov    -0xc0(%ebp),%eax
c01024ac:	89 85 f4 fe ff ff    	mov    %eax,-0x10c(%ebp)
c01024b2:	0f 84 b2 02 00 00    	je     c010276a <exec+0x34a>
c01024b8:	31 db                	xor    %ebx,%ebx
c01024ba:	c7 85 f0 fe ff ff 00 	movl   $0x0,-0x110(%ebp)
c01024c1:	00 00 00 
c01024c4:	e9 8a 00 00 00       	jmp    c0102553 <exec+0x133>
c01024c9:	8d b4 26 00 00 00 00 	lea    0x0(%esi,%eiz,1),%esi
c01024d0:	83 bd 04 ff ff ff 01 	cmpl   $0x1,-0xfc(%ebp)
c01024d7:	75 6c                	jne    c0102545 <exec+0x125>
c01024d9:	8b 85 18 ff ff ff    	mov    -0xe8(%ebp),%eax
c01024df:	3b 85 14 ff ff ff    	cmp    -0xec(%ebp),%eax
c01024e5:	0f 82 ae 00 00 00    	jb     c0102599 <exec+0x179>
c01024eb:	03 85 0c ff ff ff    	add    -0xf4(%ebp),%eax
c01024f1:	0f 82 a2 00 00 00    	jb     c0102599 <exec+0x179>
c01024f7:	8b bd ec fe ff ff    	mov    -0x114(%ebp),%edi
c01024fd:	83 ec 04             	sub    $0x4,%esp
c0102500:	50                   	push   %eax
c0102501:	ff b5 f0 fe ff ff    	pushl  -0x110(%ebp)
c0102507:	57                   	push   %edi
c0102508:	e8 d3 0b 00 00       	call   c01030e0 <gvusrmem>
c010250d:	83 c4 10             	add    $0x10,%esp
c0102510:	85 c0                	test   %eax,%eax
c0102512:	89 85 f0 fe ff ff    	mov    %eax,-0x110(%ebp)
c0102518:	74 7f                	je     c0102599 <exec+0x179>
c010251a:	8b 85 0c ff ff ff    	mov    -0xf4(%ebp),%eax
c0102520:	a9 ff 0f 00 00       	test   $0xfff,%eax
c0102525:	75 72                	jne    c0102599 <exec+0x179>
c0102527:	83 ec 0c             	sub    $0xc,%esp
c010252a:	ff b5 14 ff ff ff    	pushl  -0xec(%ebp)
c0102530:	ff b5 08 ff ff ff    	pushl  -0xf8(%ebp)
c0102536:	56                   	push   %esi
c0102537:	50                   	push   %eax
c0102538:	57                   	push   %edi
c0102539:	e8 62 06 00 00       	call   c0102ba0 <ldfromhd>
c010253e:	83 c4 20             	add    $0x20,%esp
c0102541:	85 c0                	test   %eax,%eax
c0102543:	78 54                	js     c0102599 <exec+0x179>
c0102545:	0f b7 85 50 ff ff ff 	movzwl -0xb0(%ebp),%eax
c010254c:	83 c3 01             	add    $0x1,%ebx
c010254f:	39 d8                	cmp    %ebx,%eax
c0102551:	7e 75                	jle    c01025c8 <exec+0x1a8>
c0102553:	8b 85 f4 fe ff ff    	mov    -0x10c(%ebp),%eax
c0102559:	89 da                	mov    %ebx,%edx
c010255b:	83 ec 08             	sub    $0x8,%esp
c010255e:	c1 e2 05             	shl    $0x5,%edx
c0102561:	8d 3c 02             	lea    (%edx,%eax,1),%edi
c0102564:	57                   	push   %edi
c0102565:	68 7e a0 10 c0       	push   $0xc010a07e
c010256a:	e8 1b 51 00 00       	call   c010768a <kprintf>
c010256f:	83 c4 0c             	add    $0xc,%esp
c0102572:	6a 00                	push   $0x0
c0102574:	57                   	push   %edi
c0102575:	56                   	push   %esi
c0102576:	e8 75 27 00 00       	call   c0104cf0 <vfs_lseek>
c010257b:	8d 85 04 ff ff ff    	lea    -0xfc(%ebp),%eax
c0102581:	83 c4 0c             	add    $0xc,%esp
c0102584:	6a 20                	push   $0x20
c0102586:	50                   	push   %eax
c0102587:	56                   	push   %esi
c0102588:	e8 a3 27 00 00       	call   c0104d30 <vfs_read>
c010258d:	83 c4 10             	add    $0x10,%esp
c0102590:	83 f8 20             	cmp    $0x20,%eax
c0102593:	0f 84 37 ff ff ff    	je     c01024d0 <exec+0xb0>
c0102599:	83 ec 0c             	sub    $0xc,%esp
c010259c:	ff b5 ec fe ff ff    	pushl  -0x114(%ebp)
c01025a2:	e8 79 0c 00 00       	call   c0103220 <clearpgd>
c01025a7:	83 c4 10             	add    $0x10,%esp
c01025aa:	83 ec 0c             	sub    $0xc,%esp
c01025ad:	56                   	push   %esi
c01025ae:	e8 9d 27 00 00       	call   c0104d50 <vfs_close>
c01025b3:	83 c4 10             	add    $0x10,%esp
c01025b6:	b8 ff ff ff ff       	mov    $0xffffffff,%eax
c01025bb:	8d 65 f4             	lea    -0xc(%ebp),%esp
c01025be:	5b                   	pop    %ebx
c01025bf:	5e                   	pop    %esi
c01025c0:	5f                   	pop    %edi
c01025c1:	5d                   	pop    %ebp
c01025c2:	c3                   	ret    
c01025c3:	90                   	nop
c01025c4:	8d 74 26 00          	lea    0x0(%esi,%eiz,1),%esi
c01025c8:	8b bd f0 fe ff ff    	mov    -0x110(%ebp),%edi
c01025ce:	81 c7 ff 0f 00 00    	add    $0xfff,%edi
c01025d4:	81 e7 00 f0 ff ff    	and    $0xfffff000,%edi
c01025da:	8d 87 00 20 00 00    	lea    0x2000(%edi),%eax
c01025e0:	83 ec 04             	sub    $0x4,%esp
c01025e3:	50                   	push   %eax
c01025e4:	57                   	push   %edi
c01025e5:	8b bd ec fe ff ff    	mov    -0x114(%ebp),%edi
c01025eb:	57                   	push   %edi
c01025ec:	e8 ef 0a 00 00       	call   c01030e0 <gvusrmem>
c01025f1:	83 c4 10             	add    $0x10,%esp
c01025f4:	85 c0                	test   %eax,%eax
c01025f6:	89 c3                	mov    %eax,%ebx
c01025f8:	89 85 f0 fe ff ff    	mov    %eax,-0x110(%ebp)
c01025fe:	74 99                	je     c0102599 <exec+0x179>
c0102600:	8d 80 00 e0 ff ff    	lea    -0x2000(%eax),%eax
c0102606:	83 ec 08             	sub    $0x8,%esp
c0102609:	50                   	push   %eax
c010260a:	57                   	push   %edi
c010260b:	31 ff                	xor    %edi,%edi
c010260d:	e8 4e 05 00 00       	call   c0102b60 <setusrcnt>
c0102612:	8b 45 0c             	mov    0xc(%ebp),%eax
c0102615:	83 c4 10             	add    $0x10,%esp
c0102618:	8b 08                	mov    (%eax),%ecx
c010261a:	85 c9                	test   %ecx,%ecx
c010261c:	0f 84 54 01 00 00    	je     c0102776 <exec+0x356>
c0102622:	89 b5 f4 fe ff ff    	mov    %esi,-0x10c(%ebp)
c0102628:	8b 75 0c             	mov    0xc(%ebp),%esi
c010262b:	eb 21                	jmp    c010264e <exec+0x22e>
c010262d:	8d 76 00             	lea    0x0(%esi),%esi
c0102630:	8d 47 01             	lea    0x1(%edi),%eax
c0102633:	8d 95 58 ff ff ff    	lea    -0xa8(%ebp),%edx
c0102639:	89 9c bd 64 ff ff ff 	mov    %ebx,-0x9c(%ebp,%edi,4)
c0102640:	8b 0c 86             	mov    (%esi,%eax,4),%ecx
c0102643:	85 c9                	test   %ecx,%ecx
c0102645:	74 45                	je     c010268c <exec+0x26c>
c0102647:	83 f8 20             	cmp    $0x20,%eax
c010264a:	74 35                	je     c0102681 <exec+0x261>
c010264c:	89 c7                	mov    %eax,%edi
c010264e:	83 ec 0c             	sub    $0xc,%esp
c0102651:	51                   	push   %ecx
c0102652:	e8 e9 13 00 00       	call   c0103a40 <str_len>
c0102657:	f7 d0                	not    %eax
c0102659:	01 c3                	add    %eax,%ebx
c010265b:	58                   	pop    %eax
c010265c:	ff 34 be             	pushl  (%esi,%edi,4)
c010265f:	83 e3 fc             	and    $0xfffffffc,%ebx
c0102662:	e8 d9 13 00 00       	call   c0103a40 <str_len>
c0102667:	83 c0 01             	add    $0x1,%eax
c010266a:	50                   	push   %eax
c010266b:	ff 34 be             	pushl  (%esi,%edi,4)
c010266e:	53                   	push   %ebx
c010266f:	ff b5 ec fe ff ff    	pushl  -0x114(%ebp)
c0102675:	e8 56 06 00 00       	call   c0102cd0 <copyout>
c010267a:	83 c4 20             	add    $0x20,%esp
c010267d:	85 c0                	test   %eax,%eax
c010267f:	79 af                	jns    c0102630 <exec+0x210>
c0102681:	8b b5 f4 fe ff ff    	mov    -0x10c(%ebp),%esi
c0102687:	e9 0d ff ff ff       	jmp    c0102599 <exec+0x179>
c010268c:	8d 0c bd 08 00 00 00 	lea    0x8(,%edi,4),%ecx
c0102693:	8b b5 f4 fe ff ff    	mov    -0x10c(%ebp),%esi
c0102699:	89 85 f4 fe ff ff    	mov    %eax,-0x10c(%ebp)
c010269f:	8d 47 04             	lea    0x4(%edi),%eax
c01026a2:	8d 79 0c             	lea    0xc(%ecx),%edi
c01026a5:	c7 84 85 58 ff ff ff 	movl   $0x0,-0xa8(%ebp,%eax,4)
c01026ac:	00 00 00 00 
c01026b0:	8b 85 f4 fe ff ff    	mov    -0x10c(%ebp),%eax
c01026b6:	57                   	push   %edi
c01026b7:	52                   	push   %edx
c01026b8:	c7 85 58 ff ff ff ff 	movl   $0xffffffff,-0xa8(%ebp)
c01026bf:	ff ff ff 
c01026c2:	89 85 5c ff ff ff    	mov    %eax,-0xa4(%ebp)
c01026c8:	89 d8                	mov    %ebx,%eax
c01026ca:	29 fb                	sub    %edi,%ebx
c01026cc:	53                   	push   %ebx
c01026cd:	ff b5 ec fe ff ff    	pushl  -0x114(%ebp)
c01026d3:	29 c8                	sub    %ecx,%eax
c01026d5:	89 85 60 ff ff ff    	mov    %eax,-0xa0(%ebp)
c01026db:	e8 f0 05 00 00       	call   c0102cd0 <copyout>
c01026e0:	83 c4 10             	add    $0x10,%esp
c01026e3:	85 c0                	test   %eax,%eax
c01026e5:	0f 88 ae fe ff ff    	js     c0102599 <exec+0x179>
c01026eb:	8b 45 08             	mov    0x8(%ebp),%eax
c01026ee:	8b 55 08             	mov    0x8(%ebp),%edx
c01026f1:	0f b6 00             	movzbl (%eax),%eax
c01026f4:	84 c0                	test   %al,%al
c01026f6:	74 17                	je     c010270f <exec+0x2ef>
c01026f8:	89 d1                	mov    %edx,%ecx
c01026fa:	8d b6 00 00 00 00    	lea    0x0(%esi),%esi
c0102700:	83 c1 01             	add    $0x1,%ecx
c0102703:	3c 2f                	cmp    $0x2f,%al
c0102705:	0f b6 01             	movzbl (%ecx),%eax
c0102708:	0f 44 d1             	cmove  %ecx,%edx
c010270b:	84 c0                	test   %al,%al
c010270d:	75 f1                	jne    c0102700 <exec+0x2e0>
c010270f:	8b b5 e8 fe ff ff    	mov    -0x118(%ebp),%esi
c0102715:	83 ec 04             	sub    $0x4,%esp
c0102718:	6a 10                	push   $0x10
c010271a:	52                   	push   %edx
c010271b:	89 f0                	mov    %esi,%eax
c010271d:	83 c0 6c             	add    $0x6c,%eax
c0102720:	50                   	push   %eax
c0102721:	e8 6a 13 00 00       	call   c0103a90 <safestrcpy>
c0102726:	8b 8d ec fe ff ff    	mov    -0x114(%ebp),%ecx
c010272c:	89 f0                	mov    %esi,%eax
c010272e:	8b 76 04             	mov    0x4(%esi),%esi
c0102731:	89 48 04             	mov    %ecx,0x4(%eax)
c0102734:	8b 8d f0 fe ff ff    	mov    -0x110(%ebp),%ecx
c010273a:	89 08                	mov    %ecx,(%eax)
c010273c:	89 c1                	mov    %eax,%ecx
c010273e:	8b 95 3c ff ff ff    	mov    -0xc4(%ebp),%edx
c0102744:	8b 40 18             	mov    0x18(%eax),%eax
c0102747:	89 50 38             	mov    %edx,0x38(%eax)
c010274a:	8b 41 18             	mov    0x18(%ecx),%eax
c010274d:	89 58 44             	mov    %ebx,0x44(%eax)
c0102750:	89 0c 24             	mov    %ecx,(%esp)
c0102753:	e8 d8 02 00 00       	call   c0102a30 <changeuvm>
c0102758:	89 34 24             	mov    %esi,(%esp)
c010275b:	e8 c0 0a 00 00       	call   c0103220 <clearpgd>
c0102760:	83 c4 10             	add    $0x10,%esp
c0102763:	31 c0                	xor    %eax,%eax
c0102765:	e9 51 fe ff ff       	jmp    c01025bb <exec+0x19b>
c010276a:	31 ff                	xor    %edi,%edi
c010276c:	b8 00 20 00 00       	mov    $0x2000,%eax
c0102771:	e9 6a fe ff ff       	jmp    c01025e0 <exec+0x1c0>
c0102776:	8b 9d f0 fe ff ff    	mov    -0x110(%ebp),%ebx
c010277c:	bf 10 00 00 00       	mov    $0x10,%edi
c0102781:	b9 04 00 00 00       	mov    $0x4,%ecx
c0102786:	b8 03 00 00 00       	mov    $0x3,%eax
c010278b:	c7 85 f4 fe ff ff 00 	movl   $0x0,-0x10c(%ebp)
c0102792:	00 00 00 
c0102795:	8d 95 58 ff ff ff    	lea    -0xa8(%ebp),%edx
c010279b:	e9 05 ff ff ff       	jmp    c01026a5 <exec+0x285>
c01027a0:	83 ec 0c             	sub    $0xc,%esp
c01027a3:	68 72 a0 10 c0       	push   $0xc010a072
c01027a8:	e8 dd 4e 00 00       	call   c010768a <kprintf>
c01027ad:	83 c4 10             	add    $0x10,%esp
c01027b0:	b8 ff ff ff ff       	mov    $0xffffffff,%eax
c01027b5:	e9 01 fe ff ff       	jmp    c01025bb <exec+0x19b>

c01027ba <dotsame>:
c01027ba:	1e                   	push   %ds
c01027bb:	06                   	push   %es
c01027bc:	0f a0                	push   %fs
c01027be:	0f a8                	push   %gs
c01027c0:	60                   	pusha  
c01027c1:	66 b8 10 00          	mov    $0x10,%ax
c01027c5:	8e d8                	mov    %eax,%ds
c01027c7:	8e c0                	mov    %eax,%es
c01027c9:	54                   	push   %esp
c01027ca:	e8 d1 e9 ff ff       	call   c01011a0 <intr>
c01027cf:	83 c4 04             	add    $0x4,%esp

c01027d2 <trapret>:
c01027d2:	61                   	popa   
c01027d3:	0f a9                	pop    %gs
c01027d5:	0f a1                	pop    %fs
c01027d7:	07                   	pop    %es
c01027d8:	1f                   	pop    %ds
c01027d9:	83 c4 08             	add    $0x8,%esp
c01027dc:	cf                   	iret   
c01027dd:	66 90                	xchg   %ax,%ax
c01027df:	90                   	nop

c01027e0 <find_pte>:
c01027e0:	55                   	push   %ebp
c01027e1:	89 e5                	mov    %esp,%ebp
c01027e3:	56                   	push   %esi
c01027e4:	53                   	push   %ebx
c01027e5:	89 d3                	mov    %edx,%ebx
c01027e7:	c1 eb 16             	shr    $0x16,%ebx
c01027ea:	83 ec 10             	sub    $0x10,%esp
c01027ed:	8d 34 98             	lea    (%eax,%ebx,4),%esi
c01027f0:	8b 1e                	mov    (%esi),%ebx
c01027f2:	f6 c3 01             	test   $0x1,%bl
c01027f5:	74 29                	je     c0102820 <find_pte+0x40>
c01027f7:	81 e3 00 f0 ff ff    	and    $0xfffff000,%ebx
c01027fd:	81 eb 00 00 00 40    	sub    $0x40000000,%ebx
c0102803:	c1 ea 0a             	shr    $0xa,%edx
c0102806:	81 e2 fc 0f 00 00    	and    $0xffc,%edx
c010280c:	8d 04 13             	lea    (%ebx,%edx,1),%eax
c010280f:	8d 65 f8             	lea    -0x8(%ebp),%esp
c0102812:	5b                   	pop    %ebx
c0102813:	5e                   	pop    %esi
c0102814:	5d                   	pop    %ebp
c0102815:	c3                   	ret    
c0102816:	8d 76 00             	lea    0x0(%esi),%esi
c0102819:	8d bc 27 00 00 00 00 	lea    0x0(%edi,%eiz,1),%edi
c0102820:	85 c9                	test   %ecx,%ecx
c0102822:	89 55 f4             	mov    %edx,-0xc(%ebp)
c0102825:	74 49                	je     c0102870 <find_pte+0x90>
c0102827:	8b 1d 94 39 11 c0    	mov    0xc0113994,%ebx
c010282d:	85 db                	test   %ebx,%ebx
c010282f:	74 3f                	je     c0102870 <find_pte+0x90>
c0102831:	8b 03                	mov    (%ebx),%eax
c0102833:	83 ec 08             	sub    $0x8,%esp
c0102836:	68 00 10 00 00       	push   $0x1000
c010283b:	53                   	push   %ebx
c010283c:	a3 94 39 11 c0       	mov    %eax,0xc0113994
c0102841:	e8 ea 10 00 00       	call   c0103930 <bzero>
c0102846:	83 c4 0c             	add    $0xc,%esp
c0102849:	68 00 10 00 00       	push   $0x1000
c010284e:	6a 00                	push   $0x0
c0102850:	53                   	push   %ebx
c0102851:	e8 aa 10 00 00       	call   c0103900 <mem_set>
c0102856:	8d 83 00 00 00 40    	lea    0x40000000(%ebx),%eax
c010285c:	83 c4 10             	add    $0x10,%esp
c010285f:	8b 55 f4             	mov    -0xc(%ebp),%edx
c0102862:	83 c8 07             	or     $0x7,%eax
c0102865:	89 06                	mov    %eax,(%esi)
c0102867:	eb 9a                	jmp    c0102803 <find_pte+0x23>
c0102869:	8d b4 26 00 00 00 00 	lea    0x0(%esi,%eiz,1),%esi
c0102870:	31 c0                	xor    %eax,%eax
c0102872:	eb 9b                	jmp    c010280f <find_pte+0x2f>
c0102874:	8d b6 00 00 00 00    	lea    0x0(%esi),%esi
c010287a:	8d bf 00 00 00 00    	lea    0x0(%edi),%edi

c0102880 <mapping.constprop.3>:
c0102880:	55                   	push   %ebp
c0102881:	89 e5                	mov    %esp,%ebp
c0102883:	57                   	push   %edi
c0102884:	56                   	push   %esi
c0102885:	53                   	push   %ebx
c0102886:	89 d3                	mov    %edx,%ebx
c0102888:	81 c2 ff 0f 00 00    	add    $0xfff,%edx
c010288e:	81 e3 00 f0 ff ff    	and    $0xfffff000,%ebx
c0102894:	81 e2 00 f0 ff ff    	and    $0xfffff000,%edx
c010289a:	83 ec 1c             	sub    $0x1c,%esp
c010289d:	89 45 e4             	mov    %eax,-0x1c(%ebp)
c01028a0:	8b 45 08             	mov    0x8(%ebp),%eax
c01028a3:	29 d9                	sub    %ebx,%ecx
c01028a5:	89 55 e0             	mov    %edx,-0x20(%ebp)
c01028a8:	89 cf                	mov    %ecx,%edi
c01028aa:	83 c8 01             	or     $0x1,%eax
c01028ad:	89 45 dc             	mov    %eax,-0x24(%ebp)
c01028b0:	eb 16                	jmp    c01028c8 <mapping.constprop.3+0x48>
c01028b2:	8d b6 00 00 00 00    	lea    0x0(%esi),%esi
c01028b8:	0b 75 dc             	or     -0x24(%ebp),%esi
c01028bb:	39 5d e0             	cmp    %ebx,-0x20(%ebp)
c01028be:	89 32                	mov    %esi,(%edx)
c01028c0:	74 43                	je     c0102905 <mapping.constprop.3+0x85>
c01028c2:	81 c3 00 10 00 00    	add    $0x1000,%ebx
c01028c8:	8b 45 e4             	mov    -0x1c(%ebp),%eax
c01028cb:	89 da                	mov    %ebx,%edx
c01028cd:	b9 01 00 00 00       	mov    $0x1,%ecx
c01028d2:	8d 34 3b             	lea    (%ebx,%edi,1),%esi
c01028d5:	e8 06 ff ff ff       	call   c01027e0 <find_pte>
c01028da:	85 c0                	test   %eax,%eax
c01028dc:	89 c2                	mov    %eax,%edx
c01028de:	74 30                	je     c0102910 <mapping.constprop.3+0x90>
c01028e0:	f6 00 01             	testb  $0x1,(%eax)
c01028e3:	74 d3                	je     c01028b8 <mapping.constprop.3+0x38>
c01028e5:	83 ec 0c             	sub    $0xc,%esp
c01028e8:	89 45 d8             	mov    %eax,-0x28(%ebp)
c01028eb:	68 86 a0 10 c0       	push   $0xc010a086
c01028f0:	e8 61 4f 00 00       	call   c0107856 <puts>
c01028f5:	0b 75 dc             	or     -0x24(%ebp),%esi
c01028f8:	83 c4 10             	add    $0x10,%esp
c01028fb:	39 5d e0             	cmp    %ebx,-0x20(%ebp)
c01028fe:	8b 55 d8             	mov    -0x28(%ebp),%edx
c0102901:	89 32                	mov    %esi,(%edx)
c0102903:	75 bd                	jne    c01028c2 <mapping.constprop.3+0x42>
c0102905:	8d 65 f4             	lea    -0xc(%ebp),%esp
c0102908:	31 c0                	xor    %eax,%eax
c010290a:	5b                   	pop    %ebx
c010290b:	5e                   	pop    %esi
c010290c:	5f                   	pop    %edi
c010290d:	5d                   	pop    %ebp
c010290e:	c3                   	ret    
c010290f:	90                   	nop
c0102910:	8d 65 f4             	lea    -0xc(%ebp),%esp
c0102913:	b8 ff ff ff ff       	mov    $0xffffffff,%eax
c0102918:	5b                   	pop    %ebx
c0102919:	5e                   	pop    %esi
c010291a:	5f                   	pop    %edi
c010291b:	5d                   	pop    %ebp
c010291c:	c3                   	ret    
c010291d:	8d 76 00             	lea    0x0(%esi),%esi

c0102920 <gdt_init>:
c0102920:	55                   	push   %ebp
c0102921:	89 e5                	mov    %esp,%ebp
c0102923:	83 ec 18             	sub    $0x18,%esp
c0102926:	e8 25 40 00 00       	call   c0106950 <getcpu>
c010292b:	ba 2f 00 00 00       	mov    $0x2f,%edx
c0102930:	c7 40 74 ff ff 00 00 	movl   $0xffff,0x74(%eax)
c0102937:	c7 40 78 00 9a cf 00 	movl   $0xcf9a00,0x78(%eax)
c010293e:	c7 40 7c ff ff 00 00 	movl   $0xffff,0x7c(%eax)
c0102945:	c7 80 80 00 00 00 00 	movl   $0xcf9200,0x80(%eax)
c010294c:	92 cf 00 
c010294f:	83 c0 6c             	add    $0x6c,%eax
c0102952:	c7 40 18 ff ff 00 00 	movl   $0xffff,0x18(%eax)
c0102959:	c7 40 1c 00 fa cf 00 	movl   $0xcffa00,0x1c(%eax)
c0102960:	c7 40 20 ff ff 00 00 	movl   $0xffff,0x20(%eax)
c0102967:	c7 40 24 00 f2 cf 00 	movl   $0xcff200,0x24(%eax)
c010296e:	66 89 55 f2          	mov    %dx,-0xe(%ebp)
c0102972:	66 89 45 f4          	mov    %ax,-0xc(%ebp)
c0102976:	c1 e8 10             	shr    $0x10,%eax
c0102979:	66 89 45 f6          	mov    %ax,-0xa(%ebp)
c010297d:	8d 45 f2             	lea    -0xe(%ebp),%eax
c0102980:	0f 01 10             	lgdtl  (%eax)
c0102983:	c9                   	leave  
c0102984:	c3                   	ret    
c0102985:	8d 74 26 00          	lea    0x0(%esi,%eiz,1),%esi
c0102989:	8d bc 27 00 00 00 00 	lea    0x0(%edi,%eiz,1),%edi

c0102990 <firstuvm>:
c0102990:	55                   	push   %ebp
c0102991:	89 e5                	mov    %esp,%ebp
c0102993:	57                   	push   %edi
c0102994:	56                   	push   %esi
c0102995:	53                   	push   %ebx
c0102996:	83 ec 1c             	sub    $0x1c,%esp
c0102999:	8b 75 10             	mov    0x10(%ebp),%esi
c010299c:	8b 45 08             	mov    0x8(%ebp),%eax
c010299f:	8b 7d 0c             	mov    0xc(%ebp),%edi
c01029a2:	81 fe ff 0f 00 00    	cmp    $0xfff,%esi
c01029a8:	89 45 e4             	mov    %eax,-0x1c(%ebp)
c01029ab:	77 63                	ja     c0102a10 <firstuvm+0x80>
c01029ad:	8b 1d 94 39 11 c0    	mov    0xc0113994,%ebx
c01029b3:	85 db                	test   %ebx,%ebx
c01029b5:	74 18                	je     c01029cf <firstuvm+0x3f>
c01029b7:	8b 03                	mov    (%ebx),%eax
c01029b9:	83 ec 08             	sub    $0x8,%esp
c01029bc:	68 00 10 00 00       	push   $0x1000
c01029c1:	53                   	push   %ebx
c01029c2:	a3 94 39 11 c0       	mov    %eax,0xc0113994
c01029c7:	e8 64 0f 00 00       	call   c0103930 <bzero>
c01029cc:	83 c4 10             	add    $0x10,%esp
c01029cf:	83 ec 04             	sub    $0x4,%esp
c01029d2:	68 00 10 00 00       	push   $0x1000
c01029d7:	6a 00                	push   $0x0
c01029d9:	53                   	push   %ebx
c01029da:	e8 21 0f 00 00       	call   c0103900 <mem_set>
c01029df:	8b 45 e4             	mov    -0x1c(%ebp),%eax
c01029e2:	8d 8b 00 00 00 40    	lea    0x40000000(%ebx),%ecx
c01029e8:	31 d2                	xor    %edx,%edx
c01029ea:	c7 04 24 06 00 00 00 	movl   $0x6,(%esp)
c01029f1:	e8 8a fe ff ff       	call   c0102880 <mapping.constprop.3>
c01029f6:	89 75 10             	mov    %esi,0x10(%ebp)
c01029f9:	89 7d 0c             	mov    %edi,0xc(%ebp)
c01029fc:	83 c4 10             	add    $0x10,%esp
c01029ff:	89 5d 08             	mov    %ebx,0x8(%ebp)
c0102a02:	8d 65 f4             	lea    -0xc(%ebp),%esp
c0102a05:	5b                   	pop    %ebx
c0102a06:	5e                   	pop    %esi
c0102a07:	5f                   	pop    %edi
c0102a08:	5d                   	pop    %ebp
c0102a09:	e9 c2 10 00 00       	jmp    c0103ad0 <memmove>
c0102a0e:	66 90                	xchg   %ax,%ax
c0102a10:	83 ec 0c             	sub    $0xc,%esp
c0102a13:	68 14 c3 10 c0       	push   $0xc010c314
c0102a18:	e8 39 4e 00 00       	call   c0107856 <puts>
c0102a1d:	83 c4 10             	add    $0x10,%esp
c0102a20:	eb 8b                	jmp    c01029ad <firstuvm+0x1d>
c0102a22:	8d b4 26 00 00 00 00 	lea    0x0(%esi,%eiz,1),%esi
c0102a29:	8d bc 27 00 00 00 00 	lea    0x0(%edi,%eiz,1),%edi

c0102a30 <changeuvm>:
c0102a30:	55                   	push   %ebp
c0102a31:	89 e5                	mov    %esp,%ebp
c0102a33:	57                   	push   %edi
c0102a34:	56                   	push   %esi
c0102a35:	53                   	push   %ebx
c0102a36:	83 ec 1c             	sub    $0x1c,%esp
c0102a39:	8b 5d 08             	mov    0x8(%ebp),%ebx
c0102a3c:	85 db                	test   %ebx,%ebx
c0102a3e:	0f 84 e4 00 00 00    	je     c0102b28 <changeuvm+0xf8>
c0102a44:	8b 43 08             	mov    0x8(%ebx),%eax
c0102a47:	85 c0                	test   %eax,%eax
c0102a49:	0f 84 f9 00 00 00    	je     c0102b48 <changeuvm+0x118>
c0102a4f:	8b 43 04             	mov    0x4(%ebx),%eax
c0102a52:	85 c0                	test   %eax,%eax
c0102a54:	0f 84 b6 00 00 00    	je     c0102b10 <changeuvm+0xe0>
c0102a5a:	e8 f1 3e 00 00       	call   c0106950 <getcpu>
c0102a5f:	89 c6                	mov    %eax,%esi
c0102a61:	e8 ea 3e 00 00       	call   c0106950 <getcpu>
c0102a66:	89 c7                	mov    %eax,%edi
c0102a68:	e8 e3 3e 00 00       	call   c0106950 <getcpu>
c0102a6d:	89 45 e4             	mov    %eax,-0x1c(%ebp)
c0102a70:	83 c7 04             	add    $0x4,%edi
c0102a73:	e8 d8 3e 00 00       	call   c0106950 <getcpu>
c0102a78:	8b 4d e4             	mov    -0x1c(%ebp),%ecx
c0102a7b:	83 c0 04             	add    $0x4,%eax
c0102a7e:	ba 67 00 00 00       	mov    $0x67,%edx
c0102a83:	c1 e8 18             	shr    $0x18,%eax
c0102a86:	66 89 96 94 00 00 00 	mov    %dx,0x94(%esi)
c0102a8d:	66 89 be 96 00 00 00 	mov    %di,0x96(%esi)
c0102a94:	88 86 9b 00 00 00    	mov    %al,0x9b(%esi)
c0102a9a:	bf ff ff ff ff       	mov    $0xffffffff,%edi
c0102a9f:	83 c1 04             	add    $0x4,%ecx
c0102aa2:	c1 e9 10             	shr    $0x10,%ecx
c0102aa5:	88 8e 98 00 00 00    	mov    %cl,0x98(%esi)
c0102aab:	b9 99 40 00 00       	mov    $0x4099,%ecx
c0102ab0:	66 89 8e 99 00 00 00 	mov    %cx,0x99(%esi)
c0102ab7:	be 10 00 00 00       	mov    $0x10,%esi
c0102abc:	e8 8f 3e 00 00       	call   c0106950 <getcpu>
c0102ac1:	80 a0 99 00 00 00 ef 	andb   $0xef,0x99(%eax)
c0102ac8:	e8 83 3e 00 00       	call   c0106950 <getcpu>
c0102acd:	66 89 70 0c          	mov    %si,0xc(%eax)
c0102ad1:	8b 73 08             	mov    0x8(%ebx),%esi
c0102ad4:	e8 77 3e 00 00       	call   c0106950 <getcpu>
c0102ad9:	81 c6 00 10 00 00    	add    $0x1000,%esi
c0102adf:	89 70 08             	mov    %esi,0x8(%eax)
c0102ae2:	e8 69 3e 00 00       	call   c0106950 <getcpu>
c0102ae7:	66 89 78 6a          	mov    %di,0x6a(%eax)
c0102aeb:	b8 28 00 00 00       	mov    $0x28,%eax
c0102af0:	0f 00 d8             	ltr    %ax
c0102af3:	8b 43 04             	mov    0x4(%ebx),%eax
c0102af6:	05 00 00 00 40       	add    $0x40000000,%eax
c0102afb:	89 45 08             	mov    %eax,0x8(%ebp)
c0102afe:	8d 65 f4             	lea    -0xc(%ebp),%esp
c0102b01:	5b                   	pop    %ebx
c0102b02:	5e                   	pop    %esi
c0102b03:	5f                   	pop    %edi
c0102b04:	5d                   	pop    %ebp
c0102b05:	e9 d6 e5 ff ff       	jmp    c01010e0 <lcr3>
c0102b0a:	8d b6 00 00 00 00    	lea    0x0(%esi),%esi
c0102b10:	83 ec 0c             	sub    $0xc,%esp
c0102b13:	68 af a0 10 c0       	push   $0xc010a0af
c0102b18:	e8 39 4d 00 00       	call   c0107856 <puts>
c0102b1d:	83 c4 10             	add    $0x10,%esp
c0102b20:	e9 35 ff ff ff       	jmp    c0102a5a <changeuvm+0x2a>
c0102b25:	8d 76 00             	lea    0x0(%esi),%esi
c0102b28:	83 ec 0c             	sub    $0xc,%esp
c0102b2b:	68 98 a0 10 c0       	push   $0xc010a098
c0102b30:	e8 21 4d 00 00       	call   c0107856 <puts>
c0102b35:	8b 43 08             	mov    0x8(%ebx),%eax
c0102b38:	83 c4 10             	add    $0x10,%esp
c0102b3b:	85 c0                	test   %eax,%eax
c0102b3d:	0f 85 0c ff ff ff    	jne    c0102a4f <changeuvm+0x1f>
c0102b43:	90                   	nop
c0102b44:	8d 74 26 00          	lea    0x0(%esi,%eiz,1),%esi
c0102b48:	83 ec 0c             	sub    $0xc,%esp
c0102b4b:	68 a4 a0 10 c0       	push   $0xc010a0a4
c0102b50:	e8 01 4d 00 00       	call   c0107856 <puts>
c0102b55:	83 c4 10             	add    $0x10,%esp
c0102b58:	e9 f2 fe ff ff       	jmp    c0102a4f <changeuvm+0x1f>
c0102b5d:	8d 76 00             	lea    0x0(%esi),%esi

c0102b60 <setusrcnt>:
c0102b60:	55                   	push   %ebp
c0102b61:	31 c9                	xor    %ecx,%ecx
c0102b63:	89 e5                	mov    %esp,%ebp
c0102b65:	53                   	push   %ebx
c0102b66:	83 ec 04             	sub    $0x4,%esp
c0102b69:	8b 55 0c             	mov    0xc(%ebp),%edx
c0102b6c:	8b 45 08             	mov    0x8(%ebp),%eax
c0102b6f:	e8 6c fc ff ff       	call   c01027e0 <find_pte>
c0102b74:	85 c0                	test   %eax,%eax
c0102b76:	89 c3                	mov    %eax,%ebx
c0102b78:	74 0e                	je     c0102b88 <setusrcnt+0x28>
c0102b7a:	83 23 fb             	andl   $0xfffffffb,(%ebx)
c0102b7d:	8b 5d fc             	mov    -0x4(%ebp),%ebx
c0102b80:	c9                   	leave  
c0102b81:	c3                   	ret    
c0102b82:	8d b6 00 00 00 00    	lea    0x0(%esi),%esi
c0102b88:	83 ec 0c             	sub    $0xc,%esp
c0102b8b:	68 b9 a0 10 c0       	push   $0xc010a0b9
c0102b90:	e8 c1 4c 00 00       	call   c0107856 <puts>
c0102b95:	83 23 fb             	andl   $0xfffffffb,(%ebx)
c0102b98:	83 c4 10             	add    $0x10,%esp
c0102b9b:	8b 5d fc             	mov    -0x4(%ebp),%ebx
c0102b9e:	c9                   	leave  
c0102b9f:	c3                   	ret    

c0102ba0 <ldfromhd>:
c0102ba0:	55                   	push   %ebp
c0102ba1:	89 e5                	mov    %esp,%ebp
c0102ba3:	57                   	push   %edi
c0102ba4:	56                   	push   %esi
c0102ba5:	53                   	push   %ebx
c0102ba6:	83 ec 1c             	sub    $0x1c,%esp
c0102ba9:	f7 45 0c ff 0f 00 00 	testl  $0xfff,0xc(%ebp)
c0102bb0:	0f 85 c2 00 00 00    	jne    c0102c78 <ldfromhd+0xd8>
c0102bb6:	8b 45 18             	mov    0x18(%ebp),%eax
c0102bb9:	85 c0                	test   %eax,%eax
c0102bbb:	0f 84 97 00 00 00    	je     c0102c58 <ldfromhd+0xb8>
c0102bc1:	8b 7d 18             	mov    0x18(%ebp),%edi
c0102bc4:	31 f6                	xor    %esi,%esi
c0102bc6:	eb 62                	jmp    c0102c2a <ldfromhd+0x8a>
c0102bc8:	90                   	nop
c0102bc9:	8d b4 26 00 00 00 00 	lea    0x0(%esi,%eiz,1),%esi
c0102bd0:	8b 1b                	mov    (%ebx),%ebx
c0102bd2:	b8 00 10 00 00       	mov    $0x1000,%eax
c0102bd7:	81 e3 00 f0 ff ff    	and    $0xfffff000,%ebx
c0102bdd:	81 ff ff 0f 00 00    	cmp    $0xfff,%edi
c0102be3:	0f 46 c7             	cmovbe %edi,%eax
c0102be6:	83 ec 04             	sub    $0x4,%esp
c0102be9:	81 eb 00 00 00 40    	sub    $0x40000000,%ebx
c0102bef:	89 45 e4             	mov    %eax,-0x1c(%ebp)
c0102bf2:	8b 45 14             	mov    0x14(%ebp),%eax
c0102bf5:	6a 00                	push   $0x0
c0102bf7:	01 f0                	add    %esi,%eax
c0102bf9:	50                   	push   %eax
c0102bfa:	ff 75 10             	pushl  0x10(%ebp)
c0102bfd:	e8 ee 20 00 00       	call   c0104cf0 <vfs_lseek>
c0102c02:	83 c4 0c             	add    $0xc,%esp
c0102c05:	ff 75 e4             	pushl  -0x1c(%ebp)
c0102c08:	53                   	push   %ebx
c0102c09:	ff 75 10             	pushl  0x10(%ebp)
c0102c0c:	e8 1f 21 00 00       	call   c0104d30 <vfs_read>
c0102c11:	83 c4 10             	add    $0x10,%esp
c0102c14:	3b 45 e4             	cmp    -0x1c(%ebp),%eax
c0102c17:	75 4f                	jne    c0102c68 <ldfromhd+0xc8>
c0102c19:	81 c6 00 10 00 00    	add    $0x1000,%esi
c0102c1f:	81 ef 00 10 00 00    	sub    $0x1000,%edi
c0102c25:	39 75 18             	cmp    %esi,0x18(%ebp)
c0102c28:	76 2e                	jbe    c0102c58 <ldfromhd+0xb8>
c0102c2a:	8b 55 0c             	mov    0xc(%ebp),%edx
c0102c2d:	8b 45 08             	mov    0x8(%ebp),%eax
c0102c30:	31 c9                	xor    %ecx,%ecx
c0102c32:	01 f2                	add    %esi,%edx
c0102c34:	e8 a7 fb ff ff       	call   c01027e0 <find_pte>
c0102c39:	85 c0                	test   %eax,%eax
c0102c3b:	89 c3                	mov    %eax,%ebx
c0102c3d:	75 91                	jne    c0102bd0 <ldfromhd+0x30>
c0102c3f:	83 ec 0c             	sub    $0xc,%esp
c0102c42:	68 c4 a0 10 c0       	push   $0xc010a0c4
c0102c47:	e8 0a 4c 00 00       	call   c0107856 <puts>
c0102c4c:	83 c4 10             	add    $0x10,%esp
c0102c4f:	e9 7c ff ff ff       	jmp    c0102bd0 <ldfromhd+0x30>
c0102c54:	8d 74 26 00          	lea    0x0(%esi,%eiz,1),%esi
c0102c58:	8d 65 f4             	lea    -0xc(%ebp),%esp
c0102c5b:	31 c0                	xor    %eax,%eax
c0102c5d:	5b                   	pop    %ebx
c0102c5e:	5e                   	pop    %esi
c0102c5f:	5f                   	pop    %edi
c0102c60:	5d                   	pop    %ebp
c0102c61:	c3                   	ret    
c0102c62:	8d b6 00 00 00 00    	lea    0x0(%esi),%esi
c0102c68:	8d 65 f4             	lea    -0xc(%ebp),%esp
c0102c6b:	b8 ff ff ff ff       	mov    $0xffffffff,%eax
c0102c70:	5b                   	pop    %ebx
c0102c71:	5e                   	pop    %esi
c0102c72:	5f                   	pop    %edi
c0102c73:	5d                   	pop    %ebp
c0102c74:	c3                   	ret    
c0102c75:	8d 76 00             	lea    0x0(%esi),%esi
c0102c78:	83 ec 0c             	sub    $0xc,%esp
c0102c7b:	68 38 c3 10 c0       	push   $0xc010c338
c0102c80:	e8 d1 4b 00 00       	call   c0107856 <puts>
c0102c85:	83 c4 10             	add    $0x10,%esp
c0102c88:	e9 29 ff ff ff       	jmp    c0102bb6 <ldfromhd+0x16>
c0102c8d:	8d 76 00             	lea    0x0(%esi),%esi

c0102c90 <uva2ka>:
c0102c90:	55                   	push   %ebp
c0102c91:	31 c9                	xor    %ecx,%ecx
c0102c93:	89 e5                	mov    %esp,%ebp
c0102c95:	83 ec 08             	sub    $0x8,%esp
c0102c98:	8b 55 0c             	mov    0xc(%ebp),%edx
c0102c9b:	8b 45 08             	mov    0x8(%ebp),%eax
c0102c9e:	e8 3d fb ff ff       	call   c01027e0 <find_pte>
c0102ca3:	8b 00                	mov    (%eax),%eax
c0102ca5:	c9                   	leave  
c0102ca6:	89 c2                	mov    %eax,%edx
c0102ca8:	25 00 f0 ff ff       	and    $0xfffff000,%eax
c0102cad:	83 e2 05             	and    $0x5,%edx
c0102cb0:	2d 00 00 00 40       	sub    $0x40000000,%eax
c0102cb5:	83 fa 05             	cmp    $0x5,%edx
c0102cb8:	ba 00 00 00 00       	mov    $0x0,%edx
c0102cbd:	0f 45 c2             	cmovne %edx,%eax
c0102cc0:	c3                   	ret    
c0102cc1:	eb 0d                	jmp    c0102cd0 <copyout>
c0102cc3:	90                   	nop
c0102cc4:	90                   	nop
c0102cc5:	90                   	nop
c0102cc6:	90                   	nop
c0102cc7:	90                   	nop
c0102cc8:	90                   	nop
c0102cc9:	90                   	nop
c0102cca:	90                   	nop
c0102ccb:	90                   	nop
c0102ccc:	90                   	nop
c0102ccd:	90                   	nop
c0102cce:	90                   	nop
c0102ccf:	90                   	nop

c0102cd0 <copyout>:
c0102cd0:	55                   	push   %ebp
c0102cd1:	89 e5                	mov    %esp,%ebp
c0102cd3:	57                   	push   %edi
c0102cd4:	56                   	push   %esi
c0102cd5:	53                   	push   %ebx
c0102cd6:	83 ec 1c             	sub    $0x1c,%esp
c0102cd9:	8b 5d 14             	mov    0x14(%ebp),%ebx
c0102cdc:	8b 55 0c             	mov    0xc(%ebp),%edx
c0102cdf:	8b 7d 10             	mov    0x10(%ebp),%edi
c0102ce2:	85 db                	test   %ebx,%ebx
c0102ce4:	75 40                	jne    c0102d26 <copyout+0x56>
c0102ce6:	eb 70                	jmp    c0102d58 <copyout+0x88>
c0102ce8:	90                   	nop
c0102ce9:	8d b4 26 00 00 00 00 	lea    0x0(%esi,%eiz,1),%esi
c0102cf0:	8b 55 e4             	mov    -0x1c(%ebp),%edx
c0102cf3:	89 f1                	mov    %esi,%ecx
c0102cf5:	29 d1                	sub    %edx,%ecx
c0102cf7:	81 c1 00 10 00 00    	add    $0x1000,%ecx
c0102cfd:	39 d9                	cmp    %ebx,%ecx
c0102cff:	0f 47 cb             	cmova  %ebx,%ecx
c0102d02:	29 f2                	sub    %esi,%edx
c0102d04:	83 ec 04             	sub    $0x4,%esp
c0102d07:	01 d0                	add    %edx,%eax
c0102d09:	51                   	push   %ecx
c0102d0a:	57                   	push   %edi
c0102d0b:	50                   	push   %eax
c0102d0c:	89 4d e4             	mov    %ecx,-0x1c(%ebp)
c0102d0f:	e8 bc 0d 00 00       	call   c0103ad0 <memmove>
c0102d14:	8b 4d e4             	mov    -0x1c(%ebp),%ecx
c0102d17:	83 c4 10             	add    $0x10,%esp
c0102d1a:	8d 96 00 10 00 00    	lea    0x1000(%esi),%edx
c0102d20:	01 cf                	add    %ecx,%edi
c0102d22:	29 cb                	sub    %ecx,%ebx
c0102d24:	74 32                	je     c0102d58 <copyout+0x88>
c0102d26:	89 d6                	mov    %edx,%esi
c0102d28:	83 ec 08             	sub    $0x8,%esp
c0102d2b:	89 55 e4             	mov    %edx,-0x1c(%ebp)
c0102d2e:	81 e6 00 f0 ff ff    	and    $0xfffff000,%esi
c0102d34:	56                   	push   %esi
c0102d35:	ff 75 08             	pushl  0x8(%ebp)
c0102d38:	e8 53 ff ff ff       	call   c0102c90 <uva2ka>
c0102d3d:	83 c4 10             	add    $0x10,%esp
c0102d40:	85 c0                	test   %eax,%eax
c0102d42:	75 ac                	jne    c0102cf0 <copyout+0x20>
c0102d44:	8d 65 f4             	lea    -0xc(%ebp),%esp
c0102d47:	b8 ff ff ff ff       	mov    $0xffffffff,%eax
c0102d4c:	5b                   	pop    %ebx
c0102d4d:	5e                   	pop    %esi
c0102d4e:	5f                   	pop    %edi
c0102d4f:	5d                   	pop    %ebp
c0102d50:	c3                   	ret    
c0102d51:	8d b4 26 00 00 00 00 	lea    0x0(%esi,%eiz,1),%esi
c0102d58:	8d 65 f4             	lea    -0xc(%ebp),%esp
c0102d5b:	31 c0                	xor    %eax,%eax
c0102d5d:	5b                   	pop    %ebx
c0102d5e:	5e                   	pop    %esi
c0102d5f:	5f                   	pop    %edi
c0102d60:	5d                   	pop    %ebp
c0102d61:	c3                   	ret    
c0102d62:	8d b4 26 00 00 00 00 	lea    0x0(%esi,%eiz,1),%esi
c0102d69:	8d bc 27 00 00 00 00 	lea    0x0(%edi,%eiz,1),%edi

c0102d70 <kalloc>:
c0102d70:	55                   	push   %ebp
c0102d71:	89 e5                	mov    %esp,%ebp
c0102d73:	53                   	push   %ebx
c0102d74:	83 ec 04             	sub    $0x4,%esp
c0102d77:	8b 1d 94 39 11 c0    	mov    0xc0113994,%ebx
c0102d7d:	85 db                	test   %ebx,%ebx
c0102d7f:	74 18                	je     c0102d99 <kalloc+0x29>
c0102d81:	8b 03                	mov    (%ebx),%eax
c0102d83:	83 ec 08             	sub    $0x8,%esp
c0102d86:	68 00 10 00 00       	push   $0x1000
c0102d8b:	53                   	push   %ebx
c0102d8c:	a3 94 39 11 c0       	mov    %eax,0xc0113994
c0102d91:	e8 9a 0b 00 00       	call   c0103930 <bzero>
c0102d96:	83 c4 10             	add    $0x10,%esp
c0102d99:	89 d8                	mov    %ebx,%eax
c0102d9b:	8b 5d fc             	mov    -0x4(%ebp),%ebx
c0102d9e:	c9                   	leave  
c0102d9f:	c3                   	ret    

c0102da0 <setup_kvm>:
c0102da0:	55                   	push   %ebp
c0102da1:	89 e5                	mov    %esp,%ebp
c0102da3:	57                   	push   %edi
c0102da4:	56                   	push   %esi
c0102da5:	53                   	push   %ebx
c0102da6:	83 ec 2c             	sub    $0x2c,%esp
c0102da9:	8b 15 94 39 11 c0    	mov    0xc0113994,%edx
c0102daf:	85 d2                	test   %edx,%edx
c0102db1:	0f 84 c4 01 00 00    	je     c0102f7b <setup_kvm+0x1db>
c0102db7:	83 ec 08             	sub    $0x8,%esp
c0102dba:	8b 02                	mov    (%edx),%eax
c0102dbc:	89 55 e4             	mov    %edx,-0x1c(%ebp)
c0102dbf:	68 00 10 00 00       	push   $0x1000
c0102dc4:	52                   	push   %edx
c0102dc5:	a3 94 39 11 c0       	mov    %eax,0xc0113994
c0102dca:	e8 61 0b 00 00       	call   c0103930 <bzero>
c0102dcf:	8b 55 e4             	mov    -0x1c(%ebp),%edx
c0102dd2:	59                   	pop    %ecx
c0102dd3:	5b                   	pop    %ebx
c0102dd4:	52                   	push   %edx
c0102dd5:	68 e2 a0 10 c0       	push   $0xc010a0e2
c0102dda:	e8 ab 48 00 00       	call   c010768a <kprintf>
c0102ddf:	8b 55 e4             	mov    -0x1c(%ebp),%edx
c0102de2:	c7 45 d4 60 c9 10 c0 	movl   $0xc010c960,-0x2c(%ebp)
c0102de9:	83 c4 10             	add    $0x10,%esp
c0102dec:	89 55 e0             	mov    %edx,-0x20(%ebp)
c0102def:	8b 45 d4             	mov    -0x2c(%ebp),%eax
c0102df2:	8b 70 0c             	mov    0xc(%eax),%esi
c0102df5:	8b 48 08             	mov    0x8(%eax),%ecx
c0102df8:	8b 58 04             	mov    0x4(%eax),%ebx
c0102dfb:	8b 38                	mov    (%eax),%edi
c0102dfd:	f7 c6 80 00 00 00    	test   $0x80,%esi
c0102e03:	89 75 dc             	mov    %esi,-0x24(%ebp)
c0102e06:	89 4d e4             	mov    %ecx,-0x1c(%ebp)
c0102e09:	0f 85 c9 00 00 00    	jne    c0102ed8 <setup_kvm+0x138>
c0102e0f:	83 e6 01             	and    $0x1,%esi
c0102e12:	39 d9                	cmp    %ebx,%ecx
c0102e14:	89 75 d0             	mov    %esi,-0x30(%ebp)
c0102e17:	77 7f                	ja     c0102e98 <setup_kvm+0xf8>
c0102e19:	e9 f6 00 00 00       	jmp    c0102f14 <setup_kvm+0x174>
c0102e1e:	66 90                	xchg   %ax,%ax
c0102e20:	8b 55 d0             	mov    -0x30(%ebp),%edx
c0102e23:	85 d2                	test   %edx,%edx
c0102e25:	0f 84 0d 01 00 00    	je     c0102f38 <setup_kvm+0x198>
c0102e2b:	8b 35 94 39 11 c0    	mov    0xc0113994,%esi
c0102e31:	85 f6                	test   %esi,%esi
c0102e33:	0f 84 2f 01 00 00    	je     c0102f68 <setup_kvm+0x1c8>
c0102e39:	8b 16                	mov    (%esi),%edx
c0102e3b:	83 ec 08             	sub    $0x8,%esp
c0102e3e:	89 45 d8             	mov    %eax,-0x28(%ebp)
c0102e41:	68 00 10 00 00       	push   $0x1000
c0102e46:	56                   	push   %esi
c0102e47:	89 15 94 39 11 c0    	mov    %edx,0xc0113994
c0102e4d:	e8 de 0a 00 00       	call   c0103930 <bzero>
c0102e52:	8b 45 dc             	mov    -0x24(%ebp),%eax
c0102e55:	89 fa                	mov    %edi,%edx
c0102e57:	89 d9                	mov    %ebx,%ecx
c0102e59:	c1 ea 0c             	shr    $0xc,%edx
c0102e5c:	81 e1 00 f0 ff ff    	and    $0xfffff000,%ecx
c0102e62:	83 c4 10             	add    $0x10,%esp
c0102e65:	81 e2 ff 03 00 00    	and    $0x3ff,%edx
c0102e6b:	09 c1                	or     %eax,%ecx
c0102e6d:	89 0c 96             	mov    %ecx,(%esi,%edx,4)
c0102e70:	81 c6 00 00 00 40    	add    $0x40000000,%esi
c0102e76:	81 e6 00 f0 ff ff    	and    $0xfffff000,%esi
c0102e7c:	09 c6                	or     %eax,%esi
c0102e7e:	8b 45 d8             	mov    -0x28(%ebp),%eax
c0102e81:	89 30                	mov    %esi,(%eax)
c0102e83:	81 c3 00 10 00 00    	add    $0x1000,%ebx
c0102e89:	81 c7 00 10 00 00    	add    $0x1000,%edi
c0102e8f:	39 5d e4             	cmp    %ebx,-0x1c(%ebp)
c0102e92:	0f 86 7c 00 00 00    	jbe    c0102f14 <setup_kvm+0x174>
c0102e98:	8b 4d e0             	mov    -0x20(%ebp),%ecx
c0102e9b:	89 f8                	mov    %edi,%eax
c0102e9d:	c1 e8 16             	shr    $0x16,%eax
c0102ea0:	8d 04 81             	lea    (%ecx,%eax,4),%eax
c0102ea3:	8b 10                	mov    (%eax),%edx
c0102ea5:	f6 c2 01             	test   $0x1,%dl
c0102ea8:	0f 84 72 ff ff ff    	je     c0102e20 <setup_kvm+0x80>
c0102eae:	89 d9                	mov    %ebx,%ecx
c0102eb0:	89 d0                	mov    %edx,%eax
c0102eb2:	89 fa                	mov    %edi,%edx
c0102eb4:	81 e1 00 f0 ff ff    	and    $0xfffff000,%ecx
c0102eba:	0b 4d dc             	or     -0x24(%ebp),%ecx
c0102ebd:	c1 ea 0c             	shr    $0xc,%edx
c0102ec0:	25 00 f0 ff ff       	and    $0xfffff000,%eax
c0102ec5:	81 e2 ff 03 00 00    	and    $0x3ff,%edx
c0102ecb:	89 8c 90 00 00 00 c0 	mov    %ecx,-0x40000000(%eax,%edx,4)
c0102ed2:	eb af                	jmp    c0102e83 <setup_kvm+0xe3>
c0102ed4:	8d 74 26 00          	lea    0x0(%esi,%eiz,1),%esi
c0102ed8:	8d 83 00 00 40 00    	lea    0x400000(%ebx),%eax
c0102ede:	39 45 e4             	cmp    %eax,-0x1c(%ebp)
c0102ee1:	72 31                	jb     c0102f14 <setup_kvm+0x174>
c0102ee3:	8b 4d dc             	mov    -0x24(%ebp),%ecx
c0102ee6:	8b 75 e0             	mov    -0x20(%ebp),%esi
c0102ee9:	29 df                	sub    %ebx,%edi
c0102eeb:	83 c9 01             	or     $0x1,%ecx
c0102eee:	66 90                	xchg   %ax,%ax
c0102ef0:	8d 04 1f             	lea    (%edi,%ebx,1),%eax
c0102ef3:	89 da                	mov    %ebx,%edx
c0102ef5:	81 e2 00 00 c0 ff    	and    $0xffc00000,%edx
c0102efb:	c1 e8 16             	shr    $0x16,%eax
c0102efe:	09 ca                	or     %ecx,%edx
c0102f00:	89 14 86             	mov    %edx,(%esi,%eax,4)
c0102f03:	8d 83 00 00 80 00    	lea    0x800000(%ebx),%eax
c0102f09:	81 c3 00 00 40 00    	add    $0x400000,%ebx
c0102f0f:	39 45 e4             	cmp    %eax,-0x1c(%ebp)
c0102f12:	73 dc                	jae    c0102ef0 <setup_kvm+0x150>
c0102f14:	83 45 d4 10          	addl   $0x10,-0x2c(%ebp)
c0102f18:	bf 80 c9 10 c0       	mov    $0xc010c980,%edi
c0102f1d:	8b 45 d4             	mov    -0x2c(%ebp),%eax
c0102f20:	39 c7                	cmp    %eax,%edi
c0102f22:	0f 85 c7 fe ff ff    	jne    c0102def <setup_kvm+0x4f>
c0102f28:	8b 55 e0             	mov    -0x20(%ebp),%edx
c0102f2b:	8d 65 f4             	lea    -0xc(%ebp),%esp
c0102f2e:	89 d0                	mov    %edx,%eax
c0102f30:	5b                   	pop    %ebx
c0102f31:	5e                   	pop    %esi
c0102f32:	5f                   	pop    %edi
c0102f33:	5d                   	pop    %ebp
c0102f34:	c3                   	ret    
c0102f35:	8d 76 00             	lea    0x0(%esi),%esi
c0102f38:	83 ec 08             	sub    $0x8,%esp
c0102f3b:	57                   	push   %edi
c0102f3c:	68 a4 c3 10 c0       	push   $0xc010c3a4
c0102f41:	e8 44 47 00 00       	call   c010768a <kprintf>
c0102f46:	83 c4 10             	add    $0x10,%esp
c0102f49:	83 ec 0c             	sub    $0xc,%esp
c0102f4c:	68 f2 a0 10 c0       	push   $0xc010a0f2
c0102f51:	e8 00 49 00 00       	call   c0107856 <puts>
c0102f56:	83 c4 10             	add    $0x10,%esp
c0102f59:	8d 65 f4             	lea    -0xc(%ebp),%esp
c0102f5c:	31 d2                	xor    %edx,%edx
c0102f5e:	89 d0                	mov    %edx,%eax
c0102f60:	5b                   	pop    %ebx
c0102f61:	5e                   	pop    %esi
c0102f62:	5f                   	pop    %edi
c0102f63:	5d                   	pop    %ebp
c0102f64:	c3                   	ret    
c0102f65:	8d 76 00             	lea    0x0(%esi),%esi
c0102f68:	83 ec 08             	sub    $0x8,%esp
c0102f6b:	57                   	push   %edi
c0102f6c:	68 80 c3 10 c0       	push   $0xc010c380
c0102f71:	e8 14 47 00 00       	call   c010768a <kprintf>
c0102f76:	83 c4 10             	add    $0x10,%esp
c0102f79:	eb ce                	jmp    c0102f49 <setup_kvm+0x1a9>
c0102f7b:	83 ec 0c             	sub    $0xc,%esp
c0102f7e:	89 55 e4             	mov    %edx,-0x1c(%ebp)
c0102f81:	68 5c c3 10 c0       	push   $0xc010c35c
c0102f86:	e8 cb 48 00 00       	call   c0107856 <puts>
c0102f8b:	83 c4 10             	add    $0x10,%esp
c0102f8e:	8b 55 e4             	mov    -0x1c(%ebp),%edx
c0102f91:	eb 98                	jmp    c0102f2b <setup_kvm+0x18b>
c0102f93:	8d b6 00 00 00 00    	lea    0x0(%esi),%esi
c0102f99:	8d bc 27 00 00 00 00 	lea    0x0(%edi,%eiz,1),%edi

c0102fa0 <kfree>:
c0102fa0:	55                   	push   %ebp
c0102fa1:	89 e5                	mov    %esp,%ebp
c0102fa3:	83 ec 08             	sub    $0x8,%esp
c0102fa6:	8b 45 08             	mov    0x8(%ebp),%eax
c0102fa9:	3d 00 00 00 fe       	cmp    $0xfe000000,%eax
c0102fae:	0f 97 c1             	seta   %cl
c0102fb1:	3d 00 20 13 c0       	cmp    $0xc0132000,%eax
c0102fb6:	0f 92 c2             	setb   %dl
c0102fb9:	08 d1                	or     %dl,%cl
c0102fbb:	75 07                	jne    c0102fc4 <kfree+0x24>
c0102fbd:	a9 ff 0f 00 00       	test   $0xfff,%eax
c0102fc2:	74 1c                	je     c0102fe0 <kfree+0x40>
c0102fc4:	83 ec 08             	sub    $0x8,%esp
c0102fc7:	50                   	push   %eax
c0102fc8:	68 0e a1 10 c0       	push   $0xc010a10e
c0102fcd:	e8 b8 46 00 00       	call   c010768a <kprintf>
c0102fd2:	83 c4 10             	add    $0x10,%esp
c0102fd5:	c9                   	leave  
c0102fd6:	c3                   	ret    
c0102fd7:	89 f6                	mov    %esi,%esi
c0102fd9:	8d bc 27 00 00 00 00 	lea    0x0(%edi,%eiz,1),%edi
c0102fe0:	8b 15 94 39 11 c0    	mov    0xc0113994,%edx
c0102fe6:	83 05 98 39 11 c0 01 	addl   $0x1,0xc0113998
c0102fed:	a3 94 39 11 c0       	mov    %eax,0xc0113994
c0102ff2:	89 10                	mov    %edx,(%eax)
c0102ff4:	c9                   	leave  
c0102ff5:	c3                   	ret    
c0102ff6:	8d 76 00             	lea    0x0(%esi),%esi
c0102ff9:	8d bc 27 00 00 00 00 	lea    0x0(%edi,%eiz,1),%edi

c0103000 <cfcusrmem.part.1>:
c0103000:	55                   	push   %ebp
c0103001:	89 e5                	mov    %esp,%ebp
c0103003:	57                   	push   %edi
c0103004:	56                   	push   %esi
c0103005:	53                   	push   %ebx
c0103006:	8d 99 ff 0f 00 00    	lea    0xfff(%ecx),%ebx
c010300c:	81 e3 00 f0 ff ff    	and    $0xfffff000,%ebx
c0103012:	83 ec 1c             	sub    $0x1c,%esp
c0103015:	89 45 e4             	mov    %eax,-0x1c(%ebp)
c0103018:	39 d3                	cmp    %edx,%ebx
c010301a:	89 4d e0             	mov    %ecx,-0x20(%ebp)
c010301d:	73 62                	jae    c0103081 <cfcusrmem.part.1+0x81>
c010301f:	89 d6                	mov    %edx,%esi
c0103021:	eb 36                	jmp    c0103059 <cfcusrmem.part.1+0x59>
c0103023:	90                   	nop
c0103024:	8d 74 26 00          	lea    0x0(%esi,%eiz,1),%esi
c0103028:	8b 00                	mov    (%eax),%eax
c010302a:	a8 01                	test   $0x1,%al
c010302c:	74 21                	je     c010304f <cfcusrmem.part.1+0x4f>
c010302e:	25 00 f0 ff ff       	and    $0xfffff000,%eax
c0103033:	89 c1                	mov    %eax,%ecx
c0103035:	74 59                	je     c0103090 <cfcusrmem.part.1+0x90>
c0103037:	8d 81 00 00 00 c0    	lea    -0x40000000(%ecx),%eax
c010303d:	83 ec 0c             	sub    $0xc,%esp
c0103040:	50                   	push   %eax
c0103041:	e8 5a ff ff ff       	call   c0102fa0 <kfree>
c0103046:	c7 07 00 00 00 00    	movl   $0x0,(%edi)
c010304c:	83 c4 10             	add    $0x10,%esp
c010304f:	81 c3 00 10 00 00    	add    $0x1000,%ebx
c0103055:	39 f3                	cmp    %esi,%ebx
c0103057:	73 28                	jae    c0103081 <cfcusrmem.part.1+0x81>
c0103059:	8b 45 e4             	mov    -0x1c(%ebp),%eax
c010305c:	31 c9                	xor    %ecx,%ecx
c010305e:	89 da                	mov    %ebx,%edx
c0103060:	e8 7b f7 ff ff       	call   c01027e0 <find_pte>
c0103065:	85 c0                	test   %eax,%eax
c0103067:	89 c7                	mov    %eax,%edi
c0103069:	75 bd                	jne    c0103028 <cfcusrmem.part.1+0x28>
c010306b:	81 e3 00 00 c0 ff    	and    $0xffc00000,%ebx
c0103071:	81 c3 00 f0 3f 00    	add    $0x3ff000,%ebx
c0103077:	81 c3 00 10 00 00    	add    $0x1000,%ebx
c010307d:	39 f3                	cmp    %esi,%ebx
c010307f:	72 d8                	jb     c0103059 <cfcusrmem.part.1+0x59>
c0103081:	8b 45 e0             	mov    -0x20(%ebp),%eax
c0103084:	8d 65 f4             	lea    -0xc(%ebp),%esp
c0103087:	5b                   	pop    %ebx
c0103088:	5e                   	pop    %esi
c0103089:	5f                   	pop    %edi
c010308a:	5d                   	pop    %ebp
c010308b:	c3                   	ret    
c010308c:	8d 74 26 00          	lea    0x0(%esi,%eiz,1),%esi
c0103090:	83 ec 0c             	sub    $0xc,%esp
c0103093:	89 45 dc             	mov    %eax,-0x24(%ebp)
c0103096:	68 27 a1 10 c0       	push   $0xc010a127
c010309b:	e8 b6 47 00 00       	call   c0107856 <puts>
c01030a0:	83 c4 10             	add    $0x10,%esp
c01030a3:	8b 4d dc             	mov    -0x24(%ebp),%ecx
c01030a6:	eb 8f                	jmp    c0103037 <cfcusrmem.part.1+0x37>
c01030a8:	90                   	nop
c01030a9:	8d b4 26 00 00 00 00 	lea    0x0(%esi,%eiz,1),%esi

c01030b0 <cfcusrmem>:
c01030b0:	55                   	push   %ebp
c01030b1:	89 e5                	mov    %esp,%ebp
c01030b3:	8b 55 0c             	mov    0xc(%ebp),%edx
c01030b6:	8b 4d 10             	mov    0x10(%ebp),%ecx
c01030b9:	8b 45 08             	mov    0x8(%ebp),%eax
c01030bc:	39 d1                	cmp    %edx,%ecx
c01030be:	73 10                	jae    c01030d0 <cfcusrmem+0x20>
c01030c0:	5d                   	pop    %ebp
c01030c1:	e9 3a ff ff ff       	jmp    c0103000 <cfcusrmem.part.1>
c01030c6:	8d 76 00             	lea    0x0(%esi),%esi
c01030c9:	8d bc 27 00 00 00 00 	lea    0x0(%edi,%eiz,1),%edi
c01030d0:	89 d0                	mov    %edx,%eax
c01030d2:	5d                   	pop    %ebp
c01030d3:	c3                   	ret    
c01030d4:	8d b6 00 00 00 00    	lea    0x0(%esi),%esi
c01030da:	8d bf 00 00 00 00    	lea    0x0(%edi),%edi

c01030e0 <gvusrmem>:
c01030e0:	55                   	push   %ebp
c01030e1:	89 e5                	mov    %esp,%ebp
c01030e3:	57                   	push   %edi
c01030e4:	56                   	push   %esi
c01030e5:	53                   	push   %ebx
c01030e6:	83 ec 0c             	sub    $0xc,%esp
c01030e9:	81 7d 10 ff ff ff bf 	cmpl   $0xbfffffff,0x10(%ebp)
c01030f0:	0f 87 10 01 00 00    	ja     c0103206 <gvusrmem+0x126>
c01030f6:	8b 45 0c             	mov    0xc(%ebp),%eax
c01030f9:	39 45 10             	cmp    %eax,0x10(%ebp)
c01030fc:	0f 82 d4 00 00 00    	jb     c01031d6 <gvusrmem+0xf6>
c0103102:	8b 45 0c             	mov    0xc(%ebp),%eax
c0103105:	8d b0 ff 0f 00 00    	lea    0xfff(%eax),%esi
c010310b:	81 e6 00 f0 ff ff    	and    $0xfffff000,%esi
c0103111:	39 75 10             	cmp    %esi,0x10(%ebp)
c0103114:	0f 86 f6 00 00 00    	jbe    c0103210 <gvusrmem+0x130>
c010311a:	8b 1d 94 39 11 c0    	mov    0xc0113994,%ebx
c0103120:	85 db                	test   %ebx,%ebx
c0103122:	0f 84 b8 00 00 00    	je     c01031e0 <gvusrmem+0x100>
c0103128:	8b 45 10             	mov    0x10(%ebp),%eax
c010312b:	83 e8 01             	sub    $0x1,%eax
c010312e:	29 f0                	sub    %esi,%eax
c0103130:	25 00 f0 ff ff       	and    $0xfffff000,%eax
c0103135:	8d bc 06 00 10 00 00 	lea    0x1000(%esi,%eax,1),%edi
c010313c:	eb 1e                	jmp    c010315c <gvusrmem+0x7c>
c010313e:	66 90                	xchg   %ax,%ax
c0103140:	81 c6 00 10 00 00    	add    $0x1000,%esi
c0103146:	39 fe                	cmp    %edi,%esi
c0103148:	0f 84 c2 00 00 00    	je     c0103210 <gvusrmem+0x130>
c010314e:	8b 1d 94 39 11 c0    	mov    0xc0113994,%ebx
c0103154:	85 db                	test   %ebx,%ebx
c0103156:	0f 84 84 00 00 00    	je     c01031e0 <gvusrmem+0x100>
c010315c:	8b 03                	mov    (%ebx),%eax
c010315e:	83 ec 08             	sub    $0x8,%esp
c0103161:	68 00 10 00 00       	push   $0x1000
c0103166:	53                   	push   %ebx
c0103167:	a3 94 39 11 c0       	mov    %eax,0xc0113994
c010316c:	e8 bf 07 00 00       	call   c0103930 <bzero>
c0103171:	83 c4 0c             	add    $0xc,%esp
c0103174:	68 00 10 00 00       	push   $0x1000
c0103179:	6a 00                	push   $0x0
c010317b:	68 60 c9 10 c0       	push   $0xc010c960
c0103180:	e8 7b 07 00 00       	call   c0103900 <mem_set>
c0103185:	8b 45 08             	mov    0x8(%ebp),%eax
c0103188:	8d 8b 00 00 00 40    	lea    0x40000000(%ebx),%ecx
c010318e:	89 f2                	mov    %esi,%edx
c0103190:	c7 04 24 06 00 00 00 	movl   $0x6,(%esp)
c0103197:	e8 e4 f6 ff ff       	call   c0102880 <mapping.constprop.3>
c010319c:	83 c4 10             	add    $0x10,%esp
c010319f:	85 c0                	test   %eax,%eax
c01031a1:	79 9d                	jns    c0103140 <gvusrmem+0x60>
c01031a3:	83 ec 0c             	sub    $0xc,%esp
c01031a6:	68 58 a1 10 c0       	push   $0xc010a158
c01031ab:	e8 a6 46 00 00       	call   c0107856 <puts>
c01031b0:	83 c4 10             	add    $0x10,%esp
c01031b3:	8b 45 0c             	mov    0xc(%ebp),%eax
c01031b6:	39 45 10             	cmp    %eax,0x10(%ebp)
c01031b9:	76 0d                	jbe    c01031c8 <gvusrmem+0xe8>
c01031bb:	89 c1                	mov    %eax,%ecx
c01031bd:	8b 55 10             	mov    0x10(%ebp),%edx
c01031c0:	8b 45 08             	mov    0x8(%ebp),%eax
c01031c3:	e8 38 fe ff ff       	call   c0103000 <cfcusrmem.part.1>
c01031c8:	83 ec 0c             	sub    $0xc,%esp
c01031cb:	53                   	push   %ebx
c01031cc:	e8 cf fd ff ff       	call   c0102fa0 <kfree>
c01031d1:	83 c4 10             	add    $0x10,%esp
c01031d4:	31 c0                	xor    %eax,%eax
c01031d6:	8d 65 f4             	lea    -0xc(%ebp),%esp
c01031d9:	5b                   	pop    %ebx
c01031da:	5e                   	pop    %esi
c01031db:	5f                   	pop    %edi
c01031dc:	5d                   	pop    %ebp
c01031dd:	c3                   	ret    
c01031de:	66 90                	xchg   %ax,%ax
c01031e0:	83 ec 0c             	sub    $0xc,%esp
c01031e3:	68 3d a1 10 c0       	push   $0xc010a13d
c01031e8:	e8 69 46 00 00       	call   c0107856 <puts>
c01031ed:	83 c4 10             	add    $0x10,%esp
c01031f0:	8b 45 0c             	mov    0xc(%ebp),%eax
c01031f3:	39 45 10             	cmp    %eax,0x10(%ebp)
c01031f6:	76 0e                	jbe    c0103206 <gvusrmem+0x126>
c01031f8:	8b 4d 0c             	mov    0xc(%ebp),%ecx
c01031fb:	8b 55 10             	mov    0x10(%ebp),%edx
c01031fe:	8b 45 08             	mov    0x8(%ebp),%eax
c0103201:	e8 fa fd ff ff       	call   c0103000 <cfcusrmem.part.1>
c0103206:	8d 65 f4             	lea    -0xc(%ebp),%esp
c0103209:	31 c0                	xor    %eax,%eax
c010320b:	5b                   	pop    %ebx
c010320c:	5e                   	pop    %esi
c010320d:	5f                   	pop    %edi
c010320e:	5d                   	pop    %ebp
c010320f:	c3                   	ret    
c0103210:	8b 45 10             	mov    0x10(%ebp),%eax
c0103213:	8d 65 f4             	lea    -0xc(%ebp),%esp
c0103216:	5b                   	pop    %ebx
c0103217:	5e                   	pop    %esi
c0103218:	5f                   	pop    %edi
c0103219:	5d                   	pop    %ebp
c010321a:	c3                   	ret    
c010321b:	90                   	nop
c010321c:	8d 74 26 00          	lea    0x0(%esi,%eiz,1),%esi

c0103220 <clearpgd>:
c0103220:	55                   	push   %ebp
c0103221:	89 e5                	mov    %esp,%ebp
c0103223:	57                   	push   %edi
c0103224:	56                   	push   %esi
c0103225:	53                   	push   %ebx
c0103226:	83 ec 0c             	sub    $0xc,%esp
c0103229:	8b 75 08             	mov    0x8(%ebp),%esi
c010322c:	85 f6                	test   %esi,%esi
c010322e:	74 59                	je     c0103289 <clearpgd+0x69>
c0103230:	31 c9                	xor    %ecx,%ecx
c0103232:	ba 00 00 00 c0       	mov    $0xc0000000,%edx
c0103237:	89 f0                	mov    %esi,%eax
c0103239:	e8 c2 fd ff ff       	call   c0103000 <cfcusrmem.part.1>
c010323e:	89 f3                	mov    %esi,%ebx
c0103240:	8d be 00 0c 00 00    	lea    0xc00(%esi),%edi
c0103246:	eb 0f                	jmp    c0103257 <clearpgd+0x37>
c0103248:	90                   	nop
c0103249:	8d b4 26 00 00 00 00 	lea    0x0(%esi,%eiz,1),%esi
c0103250:	83 c3 04             	add    $0x4,%ebx
c0103253:	39 fb                	cmp    %edi,%ebx
c0103255:	74 23                	je     c010327a <clearpgd+0x5a>
c0103257:	8b 03                	mov    (%ebx),%eax
c0103259:	a8 01                	test   $0x1,%al
c010325b:	74 f3                	je     c0103250 <clearpgd+0x30>
c010325d:	25 00 f0 ff ff       	and    $0xfffff000,%eax
c0103262:	83 ec 0c             	sub    $0xc,%esp
c0103265:	83 c3 04             	add    $0x4,%ebx
c0103268:	2d 00 00 00 40       	sub    $0x40000000,%eax
c010326d:	50                   	push   %eax
c010326e:	e8 2d fd ff ff       	call   c0102fa0 <kfree>
c0103273:	83 c4 10             	add    $0x10,%esp
c0103276:	39 fb                	cmp    %edi,%ebx
c0103278:	75 dd                	jne    c0103257 <clearpgd+0x37>
c010327a:	89 75 08             	mov    %esi,0x8(%ebp)
c010327d:	8d 65 f4             	lea    -0xc(%ebp),%esp
c0103280:	5b                   	pop    %ebx
c0103281:	5e                   	pop    %esi
c0103282:	5f                   	pop    %edi
c0103283:	5d                   	pop    %ebp
c0103284:	e9 17 fd ff ff       	jmp    c0102fa0 <kfree>
c0103289:	83 ec 0c             	sub    $0xc,%esp
c010328c:	68 af a0 10 c0       	push   $0xc010a0af
c0103291:	e8 c0 45 00 00       	call   c0107856 <puts>
c0103296:	83 c4 10             	add    $0x10,%esp
c0103299:	eb 95                	jmp    c0103230 <clearpgd+0x10>
c010329b:	90                   	nop
c010329c:	8d 74 26 00          	lea    0x0(%esi,%eiz,1),%esi

c01032a0 <copyuvm>:
c01032a0:	55                   	push   %ebp
c01032a1:	89 e5                	mov    %esp,%ebp
c01032a3:	57                   	push   %edi
c01032a4:	56                   	push   %esi
c01032a5:	53                   	push   %ebx
c01032a6:	83 ec 1c             	sub    $0x1c,%esp
c01032a9:	e8 f2 fa ff ff       	call   c0102da0 <setup_kvm>
c01032ae:	85 c0                	test   %eax,%eax
c01032b0:	89 45 e0             	mov    %eax,-0x20(%ebp)
c01032b3:	0f 84 f8 00 00 00    	je     c01033b1 <copyuvm+0x111>
c01032b9:	8b 55 0c             	mov    0xc(%ebp),%edx
c01032bc:	85 d2                	test   %edx,%edx
c01032be:	0f 84 ed 00 00 00    	je     c01033b1 <copyuvm+0x111>
c01032c4:	31 ff                	xor    %edi,%edi
c01032c6:	eb 76                	jmp    c010333e <copyuvm+0x9e>
c01032c8:	90                   	nop
c01032c9:	8d b4 26 00 00 00 00 	lea    0x0(%esi,%eiz,1),%esi
c01032d0:	8b 35 94 39 11 c0    	mov    0xc0113994,%esi
c01032d6:	89 c3                	mov    %eax,%ebx
c01032d8:	25 ff 0f 00 00       	and    $0xfff,%eax
c01032dd:	81 e3 00 f0 ff ff    	and    $0xfffff000,%ebx
c01032e3:	89 45 e4             	mov    %eax,-0x1c(%ebp)
c01032e6:	85 f6                	test   %esi,%esi
c01032e8:	0f 84 ae 00 00 00    	je     c010339c <copyuvm+0xfc>
c01032ee:	8b 06                	mov    (%esi),%eax
c01032f0:	83 ec 08             	sub    $0x8,%esp
c01032f3:	81 eb 00 00 00 40    	sub    $0x40000000,%ebx
c01032f9:	68 00 10 00 00       	push   $0x1000
c01032fe:	56                   	push   %esi
c01032ff:	a3 94 39 11 c0       	mov    %eax,0xc0113994
c0103304:	e8 27 06 00 00       	call   c0103930 <bzero>
c0103309:	83 c4 0c             	add    $0xc,%esp
c010330c:	68 00 10 00 00       	push   $0x1000
c0103311:	53                   	push   %ebx
c0103312:	56                   	push   %esi
c0103313:	e8 b8 07 00 00       	call   c0103ad0 <memmove>
c0103318:	58                   	pop    %eax
c0103319:	8b 45 e0             	mov    -0x20(%ebp),%eax
c010331c:	ff 75 e4             	pushl  -0x1c(%ebp)
c010331f:	8d 8e 00 00 00 40    	lea    0x40000000(%esi),%ecx
c0103325:	89 fa                	mov    %edi,%edx
c0103327:	e8 54 f5 ff ff       	call   c0102880 <mapping.constprop.3>
c010332c:	83 c4 10             	add    $0x10,%esp
c010332f:	85 c0                	test   %eax,%eax
c0103331:	78 5d                	js     c0103390 <copyuvm+0xf0>
c0103333:	81 c7 00 10 00 00    	add    $0x1000,%edi
c0103339:	39 7d 0c             	cmp    %edi,0xc(%ebp)
c010333c:	76 73                	jbe    c01033b1 <copyuvm+0x111>
c010333e:	8b 45 08             	mov    0x8(%ebp),%eax
c0103341:	31 c9                	xor    %ecx,%ecx
c0103343:	89 fa                	mov    %edi,%edx
c0103345:	e8 96 f4 ff ff       	call   c01027e0 <find_pte>
c010334a:	85 c0                	test   %eax,%eax
c010334c:	89 c3                	mov    %eax,%ebx
c010334e:	74 28                	je     c0103378 <copyuvm+0xd8>
c0103350:	8b 03                	mov    (%ebx),%eax
c0103352:	a8 01                	test   $0x1,%al
c0103354:	0f 85 76 ff ff ff    	jne    c01032d0 <copyuvm+0x30>
c010335a:	83 ec 0c             	sub    $0xc,%esp
c010335d:	68 87 a1 10 c0       	push   $0xc010a187
c0103362:	e8 ef 44 00 00       	call   c0107856 <puts>
c0103367:	8b 03                	mov    (%ebx),%eax
c0103369:	83 c4 10             	add    $0x10,%esp
c010336c:	e9 5f ff ff ff       	jmp    c01032d0 <copyuvm+0x30>
c0103371:	8d b4 26 00 00 00 00 	lea    0x0(%esi,%eiz,1),%esi
c0103378:	83 ec 0c             	sub    $0xc,%esp
c010337b:	68 69 a1 10 c0       	push   $0xc010a169
c0103380:	e8 d1 44 00 00       	call   c0107856 <puts>
c0103385:	83 c4 10             	add    $0x10,%esp
c0103388:	eb c6                	jmp    c0103350 <copyuvm+0xb0>
c010338a:	8d b6 00 00 00 00    	lea    0x0(%esi),%esi
c0103390:	83 ec 0c             	sub    $0xc,%esp
c0103393:	56                   	push   %esi
c0103394:	e8 07 fc ff ff       	call   c0102fa0 <kfree>
c0103399:	83 c4 10             	add    $0x10,%esp
c010339c:	83 ec 0c             	sub    $0xc,%esp
c010339f:	ff 75 e0             	pushl  -0x20(%ebp)
c01033a2:	e8 79 fe ff ff       	call   c0103220 <clearpgd>
c01033a7:	83 c4 10             	add    $0x10,%esp
c01033aa:	c7 45 e0 00 00 00 00 	movl   $0x0,-0x20(%ebp)
c01033b1:	8b 45 e0             	mov    -0x20(%ebp),%eax
c01033b4:	8d 65 f4             	lea    -0xc(%ebp),%esp
c01033b7:	5b                   	pop    %ebx
c01033b8:	5e                   	pop    %esi
c01033b9:	5f                   	pop    %edi
c01033ba:	5d                   	pop    %ebp
c01033bb:	c3                   	ret    
c01033bc:	8d 74 26 00          	lea    0x0(%esi,%eiz,1),%esi

c01033c0 <free_range>:
c01033c0:	55                   	push   %ebp
c01033c1:	89 e5                	mov    %esp,%ebp
c01033c3:	56                   	push   %esi
c01033c4:	53                   	push   %ebx
c01033c5:	8b 45 08             	mov    0x8(%ebp),%eax
c01033c8:	8b 75 0c             	mov    0xc(%ebp),%esi
c01033cb:	8d 98 ff 0f 00 00    	lea    0xfff(%eax),%ebx
c01033d1:	81 e6 00 f0 ff ff    	and    $0xfffff000,%esi
c01033d7:	81 e3 00 f0 ff ff    	and    $0xfffff000,%ebx
c01033dd:	81 c3 00 10 00 00    	add    $0x1000,%ebx
c01033e3:	39 de                	cmp    %ebx,%esi
c01033e5:	72 25                	jb     c010340c <free_range+0x4c>
c01033e7:	89 f6                	mov    %esi,%esi
c01033e9:	8d bc 27 00 00 00 00 	lea    0x0(%edi,%eiz,1),%edi
c01033f0:	8d 83 00 f0 ff ff    	lea    -0x1000(%ebx),%eax
c01033f6:	83 ec 0c             	sub    $0xc,%esp
c01033f9:	81 c3 00 10 00 00    	add    $0x1000,%ebx
c01033ff:	50                   	push   %eax
c0103400:	e8 9b fb ff ff       	call   c0102fa0 <kfree>
c0103405:	83 c4 10             	add    $0x10,%esp
c0103408:	39 f3                	cmp    %esi,%ebx
c010340a:	76 e4                	jbe    c01033f0 <free_range+0x30>
c010340c:	8d 65 f8             	lea    -0x8(%ebp),%esp
c010340f:	5b                   	pop    %ebx
c0103410:	5e                   	pop    %esi
c0103411:	5d                   	pop    %ebp
c0103412:	c3                   	ret    
c0103413:	8d b6 00 00 00 00    	lea    0x0(%esi),%esi
c0103419:	8d bc 27 00 00 00 00 	lea    0x0(%edi,%eiz,1),%edi

c0103420 <init_heap>:
c0103420:	55                   	push   %ebp
c0103421:	89 e5                	mov    %esp,%ebp
c0103423:	56                   	push   %esi
c0103424:	53                   	push   %ebx
c0103425:	8b 1d 94 39 11 c0    	mov    0xc0113994,%ebx
c010342b:	8b 75 08             	mov    0x8(%ebp),%esi
c010342e:	85 db                	test   %ebx,%ebx
c0103430:	74 56                	je     c0103488 <init_heap+0x68>
c0103432:	8b 03                	mov    (%ebx),%eax
c0103434:	83 ec 08             	sub    $0x8,%esp
c0103437:	68 00 10 00 00       	push   $0x1000
c010343c:	53                   	push   %ebx
c010343d:	a3 94 39 11 c0       	mov    %eax,0xc0113994
c0103442:	e8 e9 04 00 00       	call   c0103930 <bzero>
c0103447:	89 1e                	mov    %ebx,(%esi)
c0103449:	c7 03 00 00 00 00    	movl   $0x0,(%ebx)
c010344f:	8b 06                	mov    (%esi),%eax
c0103451:	c7 40 04 00 00 00 00 	movl   $0x0,0x4(%eax)
c0103458:	8b 06                	mov    (%esi),%eax
c010345a:	c7 40 08 00 00 00 00 	movl   $0x0,0x8(%eax)
c0103461:	8b 06                	mov    (%esi),%eax
c0103463:	c7 40 0c 00 10 00 00 	movl   $0x1000,0xc(%eax)
c010346a:	c7 04 24 bd a1 10 c0 	movl   $0xc010a1bd,(%esp)
c0103471:	e8 14 42 00 00       	call   c010768a <kprintf>
c0103476:	83 c4 10             	add    $0x10,%esp
c0103479:	8d 65 f8             	lea    -0x8(%ebp),%esp
c010347c:	31 c0                	xor    %eax,%eax
c010347e:	5b                   	pop    %ebx
c010347f:	5e                   	pop    %esi
c0103480:	5d                   	pop    %ebp
c0103481:	c3                   	ret    
c0103482:	8d b6 00 00 00 00    	lea    0x0(%esi),%esi
c0103488:	83 ec 0c             	sub    $0xc,%esp
c010348b:	c7 06 00 00 00 00    	movl   $0x0,(%esi)
c0103491:	68 a0 a1 10 c0       	push   $0xc010a1a0
c0103496:	e8 ef 41 00 00       	call   c010768a <kprintf>
c010349b:	83 c4 10             	add    $0x10,%esp
c010349e:	8d 65 f8             	lea    -0x8(%ebp),%esp
c01034a1:	b8 ff ff ff ff       	mov    $0xffffffff,%eax
c01034a6:	5b                   	pop    %ebx
c01034a7:	5e                   	pop    %esi
c01034a8:	5d                   	pop    %ebp
c01034a9:	c3                   	ret    
c01034aa:	8d b6 00 00 00 00    	lea    0x0(%esi),%esi

c01034b0 <kmalloc>:
c01034b0:	55                   	push   %ebp
c01034b1:	89 e5                	mov    %esp,%ebp
c01034b3:	53                   	push   %ebx
c01034b4:	83 ec 04             	sub    $0x4,%esp
c01034b7:	8b 45 08             	mov    0x8(%ebp),%eax
c01034ba:	8b 5d 0c             	mov    0xc(%ebp),%ebx
c01034bd:	85 c0                	test   %eax,%eax
